
JDD.elf:     file format elf32-littlenios2
JDD.elf
architecture: nios2:r1, flags 0x00000112:
EXEC_P, HAS_SYMS, D_PAGED
start address 0x00000248

Program Header:
    LOAD off    0x00001000 vaddr 0x00000000 paddr 0x00000000 align 2**12
         filesz 0x00000020 memsz 0x00000020 flags r-x
    LOAD off    0x00001020 vaddr 0x00000020 paddr 0x00000020 align 2**12
         filesz 0x00011a60 memsz 0x00011a60 flags r-x
    LOAD off    0x00012a80 vaddr 0x00011a80 paddr 0x0001387c align 2**12
         filesz 0x00001dfc memsz 0x00001dfc flags rw-
    LOAD off    0x00015678 vaddr 0x00015678 paddr 0x00015678 align 2**12
         filesz 0x00000000 memsz 0x00000180 flags rw-

Sections:
Idx Name          Size      VMA       LMA       File off  Algn
  0 .entry        00000020  00000000  00000000  00001000  2**5
                  CONTENTS, ALLOC, LOAD, READONLY, CODE
  1 .exceptions   00000228  00000020  00000020  00001020  2**2
                  CONTENTS, ALLOC, LOAD, READONLY, CODE
  2 .text         000113a8  00000248  00000248  00001248  2**2
                  CONTENTS, ALLOC, LOAD, READONLY, CODE
  3 .rodata       00000490  000115f0  000115f0  000125f0  2**2
                  CONTENTS, ALLOC, LOAD, READONLY, DATA
  4 .rwdata       00001dfc  00011a80  0001387c  00012a80  2**2
                  CONTENTS, ALLOC, LOAD, DATA, SMALL_DATA
  5 .bss          00000180  00015678  00015678  00015678  2**2
                  ALLOC, SMALL_DATA
  6 .SDRAM        00000000  000157f8  000157f8  0001487c  2**0
                  CONTENTS
  7 .VGA_Subsystem_Char_Buf_Subsystem_Onchip_SRAM 00000000  09000000  09000000  0001487c  2**0
                  CONTENTS
  8 .comment      00000023  00000000  00000000  0001487c  2**0
                  CONTENTS, READONLY
  9 .debug_aranges 00000f90  00000000  00000000  000148a0  2**3
                  CONTENTS, READONLY, DEBUGGING
 10 .debug_info   00025260  00000000  00000000  00015830  2**0
                  CONTENTS, READONLY, DEBUGGING
 11 .debug_abbrev 0000986a  00000000  00000000  0003aa90  2**0
                  CONTENTS, READONLY, DEBUGGING
 12 .debug_line   0000c02b  00000000  00000000  000442fa  2**0
                  CONTENTS, READONLY, DEBUGGING
 13 .debug_frame  00002898  00000000  00000000  00050328  2**2
                  CONTENTS, READONLY, DEBUGGING
 14 .debug_str    000044e8  00000000  00000000  00052bc0  2**0
                  CONTENTS, READONLY, DEBUGGING
 15 .debug_loc    00017e16  00000000  00000000  000570a8  2**0
                  CONTENTS, READONLY, DEBUGGING
 16 .debug_alt_sim_info 00000020  00000000  00000000  0006eec0  2**2
                  CONTENTS, READONLY, DEBUGGING
 17 .debug_ranges 00001a38  00000000  00000000  0006eee0  2**3
                  CONTENTS, READONLY, DEBUGGING
 18 .thread_model 00000003  00000000  00000000  00074686  2**0
                  CONTENTS, READONLY
 19 .cpu          00000005  00000000  00000000  00074689  2**0
                  CONTENTS, READONLY
 20 .qsys         00000001  00000000  00000000  0007468e  2**0
                  CONTENTS, READONLY
 21 .simulation_enabled 00000001  00000000  00000000  0007468f  2**0
                  CONTENTS, READONLY
 22 .sysid_hash   00000004  00000000  00000000  00074690  2**0
                  CONTENTS, READONLY
 23 .sysid_base   00000004  00000000  00000000  00074694  2**0
                  CONTENTS, READONLY
 24 .sysid_time   00000004  00000000  00000000  00074698  2**0
                  CONTENTS, READONLY
 25 .stderr_dev   00000009  00000000  00000000  0007469c  2**0
                  CONTENTS, READONLY
 26 .stdin_dev    00000009  00000000  00000000  000746a5  2**0
                  CONTENTS, READONLY
 27 .stdout_dev   00000009  00000000  00000000  000746ae  2**0
                  CONTENTS, READONLY
 28 .sopc_system_name 0000000f  00000000  00000000  000746b7  2**0
                  CONTENTS, READONLY
 29 .quartus_project_dir 0000005b  00000000  00000000  000746c6  2**0
                  CONTENTS, READONLY
 30 .jdi          0000eb16  00000000  00000000  00074721  2**0
                  CONTENTS, READONLY
 31 .sopcinfo     001d8a7e  00000000  00000000  00083237  2**0
                  CONTENTS, READONLY
SYMBOL TABLE:
00000000 l    d  .entry	00000000 .entry
00000020 l    d  .exceptions	00000000 .exceptions
00000248 l    d  .text	00000000 .text
000115f0 l    d  .rodata	00000000 .rodata
00011a80 l    d  .rwdata	00000000 .rwdata
00015678 l    d  .bss	00000000 .bss
000157f8 l    d  .SDRAM	00000000 .SDRAM
09000000 l    d  .VGA_Subsystem_Char_Buf_Subsystem_Onchip_SRAM	00000000 .VGA_Subsystem_Char_Buf_Subsystem_Onchip_SRAM
00000000 l    d  .comment	00000000 .comment
00000000 l    d  .debug_aranges	00000000 .debug_aranges
00000000 l    d  .debug_info	00000000 .debug_info
00000000 l    d  .debug_abbrev	00000000 .debug_abbrev
00000000 l    d  .debug_line	00000000 .debug_line
00000000 l    d  .debug_frame	00000000 .debug_frame
00000000 l    d  .debug_str	00000000 .debug_str
00000000 l    d  .debug_loc	00000000 .debug_loc
00000000 l    d  .debug_alt_sim_info	00000000 .debug_alt_sim_info
00000000 l    d  .debug_ranges	00000000 .debug_ranges
00000000 l    df *ABS*	00000000 ../JDD_bsp//obj/HAL/src/crt0.o
00000280 l       .text	00000000 alt_after_alt_main
00000000 l    df *ABS*	00000000 alt_irq_handler.c
00000000 l    df *ABS*	00000000 alt_instruction_exception_entry.c
00000000 l    df *ABS*	00000000 hello_world.c
00000000 l    df *ABS*	00000000 gesf2.c
00000000 l    df *ABS*	00000000 lesf2.c
00000000 l    df *ABS*	00000000 floatsisf.c
00000000 l    df *ABS*	00000000 extendsfdf2.c
00000000 l    df *ABS*	00000000 libgcc2.c
00000000 l    df *ABS*	00000000 libgcc2.c
00000000 l    df *ABS*	00000000 printf.c
00000000 l    df *ABS*	00000000 vfprintf.c
00011782 l     O .rodata	00000010 zeroes.4404
00002c90 l     F .text	000000bc __sbprintf
00011792 l     O .rodata	00000010 blanks.4403
00000000 l    df *ABS*	00000000 wsetup.c
00000000 l    df *ABS*	00000000 dtoa.c
00002ea0 l     F .text	00000200 quorem
00000000 l    df *ABS*	00000000 fflush.c
00000000 l    df *ABS*	00000000 findfp.c
000049d0 l     F .text	00000008 __fp_unlock
000049e4 l     F .text	0000019c __sinit.part.1
00004b80 l     F .text	00000008 __fp_lock
00000000 l    df *ABS*	00000000 mallocr.c
00000000 l    df *ABS*	00000000 fwalk.c
00000000 l    df *ABS*	00000000 impure.c
00011a80 l     O .rwdata	00000424 impure_data
00000000 l    df *ABS*	00000000 locale.c
00011ec4 l     O .rwdata	00000020 lc_ctype_charset
00011ea4 l     O .rwdata	00000020 lc_message_charset
00011ee4 l     O .rwdata	00000038 lconv
00000000 l    df *ABS*	00000000 makebuf.c
00000000 l    df *ABS*	00000000 mallocr.c
00000000 l    df *ABS*	00000000 memchr.c
00000000 l    df *ABS*	00000000 memcpy.c
00000000 l    df *ABS*	00000000 memset.c
00000000 l    df *ABS*	00000000 mprec.c
000117c4 l     O .rodata	0000000c p05.2768
00000000 l    df *ABS*	00000000 s_fpclassify.c
00000000 l    df *ABS*	00000000 sbrkr.c
00000000 l    df *ABS*	00000000 stdio.c
00000000 l    df *ABS*	00000000 strcmp.c
00000000 l    df *ABS*	00000000 strlen.c
00000000 l    df *ABS*	00000000 vfprintf.c
00007498 l     F .text	000000fc __sprint_r.part.0
000118f8 l     O .rodata	00000010 blanks.4348
000118e8 l     O .rodata	00000010 zeroes.4349
00008a24 l     F .text	000000bc __sbprintf
00000000 l    df *ABS*	00000000 writer.c
00000000 l    df *ABS*	00000000 closer.c
00000000 l    df *ABS*	00000000 mallocr.c
00000000 l    df *ABS*	00000000 fclose.c
00000000 l    df *ABS*	00000000 fputwc.c
00000000 l    df *ABS*	00000000 fstatr.c
00000000 l    df *ABS*	00000000 fvwrite.c
00000000 l    df *ABS*	00000000 int_errno.c
00000000 l    df *ABS*	00000000 isattyr.c
00000000 l    df *ABS*	00000000 lseekr.c
00000000 l    df *ABS*	00000000 memmove.c
00000000 l    df *ABS*	00000000 readr.c
00000000 l    df *ABS*	00000000 mallocr.c
00000000 l    df *ABS*	00000000 wbuf.c
00000000 l    df *ABS*	00000000 wcrtomb.c
00000000 l    df *ABS*	00000000 wctomb_r.c
00000000 l    df *ABS*	00000000 libgcc2.c
00000000 l    df *ABS*	00000000 libgcc2.c
00000000 l    df *ABS*	00000000 lib2-divmod.c
00000000 l    df *ABS*	00000000 adddf3.c
00000000 l    df *ABS*	00000000 divdf3.c
00000000 l    df *ABS*	00000000 eqdf2.c
00000000 l    df *ABS*	00000000 gedf2.c
00000000 l    df *ABS*	00000000 ledf2.c
00000000 l    df *ABS*	00000000 muldf3.c
00000000 l    df *ABS*	00000000 subdf3.c
00000000 l    df *ABS*	00000000 fixdfsi.c
00000000 l    df *ABS*	00000000 floatsidf.c
00000000 l    df *ABS*	00000000 floatunsidf.c
00000000 l    df *ABS*	00000000 alt_close.c
0000d1f8 l     F .text	0000003c alt_get_errno
00000000 l    df *ABS*	00000000 alt_dev.c
0000d304 l     F .text	0000002c alt_dev_null_write
00000000 l    df *ABS*	00000000 alt_errno.c
00000000 l    df *ABS*	00000000 alt_fstat.c
0000d330 l     F .text	0000003c alt_get_errno
00000000 l    df *ABS*	00000000 alt_gettod.c
00000000 l    df *ABS*	00000000 alt_isatty.c
0000d5f0 l     F .text	0000003c alt_get_errno
00000000 l    df *ABS*	00000000 alt_load.c
0000d6d0 l     F .text	00000068 alt_load_section
00000000 l    df *ABS*	00000000 alt_lseek.c
0000d7bc l     F .text	0000003c alt_get_errno
00000000 l    df *ABS*	00000000 alt_main.c
00000000 l    df *ABS*	00000000 alt_malloc_lock.c
00000000 l    df *ABS*	00000000 alt_read.c
0000d990 l     F .text	0000003c alt_get_errno
00000000 l    df *ABS*	00000000 alt_release_fd.c
00000000 l    df *ABS*	00000000 alt_sbrk.c
0001386c l     O .rwdata	00000004 heap_end
00000000 l    df *ABS*	00000000 alt_tick.c
00000000 l    df *ABS*	00000000 alt_write.c
0000dd80 l     F .text	0000003c alt_get_errno
00000000 l    df *ABS*	00000000 alt_sys_init.c
0000deb4 l     F .text	00000034 alt_dev_reg
000124cc l     O .rwdata	00001060 JTAG_UART
0001352c l     O .rwdata	00000030 AV_Config
0001355c l     O .rwdata	00000030 Audio_Subsystem_Audio
0001358c l     O .rwdata	0000002c Char_LCD_16x2
000135b8 l     O .rwdata	0000002c IrDA
000135e4 l     O .rwdata	00000038 PS2_Port
0001361c l     O .rwdata	00000038 PS2_Port_Dual
00013654 l     O .rwdata	0000002c Serial_Port
00013680 l     O .rwdata	00000034 USB
000136b4 l     O .rwdata	0000005c VGA_Subsystem_Char_Buf_Subsystem_Char_Buf_DMA
00013710 l     O .rwdata	0000005c VGA_Subsystem_VGA_Pixel_DMA
0001376c l     O .rwdata	0000005c Video_In_Subsystem_Video_In_DMA
000137c8 l     O .rwdata	00000044 VGA_Subsystem_VGA_Pixel_RGB_Resampler
0001380c l     O .rwdata	0000002c SD_Card
00000000 l    df *ABS*	00000000 altera_avalon_jtag_uart_fd.c
00000000 l    df *ABS*	00000000 altera_avalon_jtag_uart_init.c
0000eaa4 l     F .text	00000210 altera_avalon_jtag_uart_irq
0000ecb4 l     F .text	000000a0 altera_avalon_jtag_uart_timeout
00000000 l    df *ABS*	00000000 altera_avalon_jtag_uart_ioctl.c
00000000 l    df *ABS*	00000000 altera_avalon_jtag_uart_read.c
00000000 l    df *ABS*	00000000 altera_avalon_jtag_uart_write.c
00000000 l    df *ABS*	00000000 altera_avalon_timer_sc.c
0000f2ec l     F .text	0000007c alt_avalon_timer_sc_irq
00000000 l    df *ABS*	00000000 altera_up_avalon_character_lcd.c
00000000 l    df *ABS*	00000000 altera_up_avalon_irda.c
00000000 l    df *ABS*	00000000 altera_up_avalon_ps2.c
00000000 l    df *ABS*	00000000 altera_up_avalon_rs232.c
00000000 l    df *ABS*	00000000 alt_alarm_start.c
00000000 l    df *ABS*	00000000 alt_dcache_flush_all.c
00000000 l    df *ABS*	00000000 alt_dev_llist_insert.c
000107e8 l     F .text	0000003c alt_get_errno
00000000 l    df *ABS*	00000000 alt_do_ctors.c
00000000 l    df *ABS*	00000000 alt_do_dtors.c
00000000 l    df *ABS*	00000000 alt_find_dev.c
00000000 l    df *ABS*	00000000 alt_icache_flush_all.c
00000000 l    df *ABS*	00000000 alt_io_redirect.c
00010a4c l     F .text	000000c4 alt_open_fd
00000000 l    df *ABS*	00000000 alt_irq_register.c
00000000 l    df *ABS*	00000000 alt_irq_vars.c
00000000 l    df *ABS*	00000000 alt_open.c
00010d0c l     F .text	0000003c alt_get_errno
00010d48 l     F .text	000000c4 alt_file_locked
00000000 l    df *ABS*	00000000 altera_nios2_gen2_irq.c
00000000 l    df *ABS*	00000000 alt_find_file.c
00000000 l    df *ABS*	00000000 alt_get_fd.c
00000000 l    df *ABS*	00000000 alt_icache_flush.c
00000000 l    df *ABS*	00000000 atexit.c
00000000 l    df *ABS*	00000000 exit.c
00000000 l    df *ABS*	00000000 memcmp.c
00000000 l    df *ABS*	00000000 __atexit.c
00000000 l    df *ABS*	00000000 __call_atexit.c
00000000 l    df *ABS*	00000000 alt_exit.c
000156cc g     O .bss	00000004 alt_instruction_exception_handler
00006fa8 g     F .text	00000074 _mprec_log10
00007094 g     F .text	0000008c __any_on
0000947c g     F .text	00000054 _isatty_r
000117d0 g     O .rodata	00000028 __mprec_tinytens
0000d8cc g     F .text	0000007c alt_main
000156f8 g     O .bss	00000100 alt_irq
0000fea8 g     F .text	00000060 alt_up_ps2_disable_read_interrupt
000094d0 g     F .text	00000060 _lseek_r
0001387c g       *ABS*	00000000 __flash_rwdata_start
0000f450 g     F .text	00000040 alt_up_character_lcd_send_cmd
0000bd88 g     F .text	00000088 .hidden __eqdf2
000157f8 g       *ABS*	00000000 __alt_heap_start
00000a40 g     F .text	0000003c printf
00009da8 g     F .text	0000009c _wcrtomb_r
000072c0 g     F .text	0000005c __sseek
00004d20 g     F .text	00000010 __sinit
00009c50 g     F .text	00000140 __swbuf_r
0000fcc0 g     F .text	00000034 read_CE_bit
0000532c g     F .text	0000007c _setlocale_r
00004b88 g     F .text	00000068 __sfmoreglue
0000d96c g     F .text	00000024 __malloc_unlock
00010048 g     F .text	0000009c alt_up_ps2_read_data_byte_timeout
0001053c g     F .text	00000090 alt_up_rs232_read_fd
00009530 g     F .text	0000015c memmove
00004d08 g     F .text	00000018 _cleanup
00006124 g     F .text	000000a8 _Balloc
0000be10 g     F .text	000000dc .hidden __gtdf2
00010f60 g     F .text	00000024 altera_nios2_gen2_irq_init
0000f3dc g     F .text	00000074 get_DDRAM_addr
00000000 g     F .entry	0000001c __reset
000002f0 g     F .text	00000088 timedifference_msec
00000020 g       *ABS*	00000000 __flash_exceptions_start
00008f64 g     F .text	0000005c _fstat_r
000156a0 g     O .bss	00000004 errno
0000723c g     F .text	00000008 __seofread
000156b8 g     O .bss	00000004 alt_argv
0001b838 g       *ABS*	00000000 _gp
0001234c g     O .rwdata	00000180 alt_fd_list
00010988 g     F .text	00000090 alt_find_dev
00005eb4 g     F .text	00000148 memcpy
0000f5f8 g     F .text	00000050 alt_up_character_lcd_write_fd
000049d8 g     F .text	0000000c _cleanup_r
0000d074 g     F .text	000000dc .hidden __floatsidf
00010b10 g     F .text	0000007c alt_io_redirect
0000beec g     F .text	000000f4 .hidden __ltdf2
000115f0 g       *ABS*	00000000 __DTOR_END__
0000fb90 g     F .text	00000090 alt_up_irda_write_fd
000104c8 g     F .text	00000074 alt_up_rs232_read_data
000111c0 g     F .text	0000009c alt_exception_cause_generated_bad_addr
00007120 g     F .text	00000074 __fpclassifyd
00006f04 g     F .text	000000a4 __ratio
00008a08 g     F .text	0000001c __vfiprintf_internal
0000f98c g     F .text	00000040 alt_up_irda_get_used_space_in_read_FIFO
0000eeac g     F .text	0000021c altera_avalon_jtag_uart_read
00000a10 g     F .text	00000030 _printf_r
0000ab38 g     F .text	00000064 .hidden __udivsi3
0000d62c g     F .text	000000a4 isatty
00011820 g     O .rodata	000000c8 __mprec_tens
000053a8 g     F .text	0000000c __locale_charset
000006b0 g     F .text	000000c8 .hidden __lesf2
0000f92c g     F .text	00000060 alt_up_irda_disable_read_interrupt
000156a4 g     O .bss	00000008 alt_timezone
00011130 g     F .text	00000090 alt_icache_flush
0001569c g     O .bss	00000004 __malloc_top_pad
00013844 g     O .rwdata	00000004 __mb_cur_max
000053d8 g     F .text	0000000c _localeconv_r
00008fc0 g     F .text	000004bc __sfvwrite_r
00006530 g     F .text	0000003c __i2b
00007194 g     F .text	00000054 _sbrk_r
0000968c g     F .text	00000060 _read_r
00013864 g     O .rwdata	00000004 alt_max_fd
00010444 g     F .text	00000044 alt_up_rs232_check_parity
00008c58 g     F .text	000000f0 _fclose_r
0000fcf4 g     F .text	00000030 read_num_bytes_available
000049a0 g     F .text	00000030 fflush
00015698 g     O .bss	00000004 __malloc_max_sbrked_mem
00010b8c g     F .text	00000180 alt_irq_register
0000fc5c g     F .text	00000034 read_RI_bit
0000089c g     F .text	00000110 .hidden __extendsfdf2
0000abf4 g     F .text	000008ac .hidden __adddf3
00006cac g     F .text	0000010c __b2d
0000a508 g     F .text	00000538 .hidden __umoddi3
0000d7f8 g     F .text	000000d4 lseek
0001383c g     O .rwdata	00000004 _global_impure_ptr
000096ec g     F .text	00000564 _realloc_r
000157f8 g       *ABS*	00000000 __bss_end
0000dc78 g     F .text	00000108 alt_tick
00000284 g     F .text	0000006c int_to_int
00009f90 g     F .text	00000578 .hidden __udivdi3
00008ec0 g     F .text	00000024 _fputwc_r
000117f8 g     O .rodata	00000028 __mprec_bigtens
00006314 g     F .text	00000104 __s2b
0000d150 g     F .text	000000a8 .hidden __floatunsidf
000069ec g     F .text	00000060 __mcmp
0000fd58 g     F .text	0000002c read_data_byte
00004d40 g     F .text	00000018 __fp_lock_all
0000dbdc g     F .text	0000009c alt_alarm_stop
0000fc90 g     F .text	00000030 read_RE_bit
000156c8 g     O .bss	00000004 alt_irq_active
0000f9cc g     F .text	0000003c alt_up_irda_get_available_space_in_write_FIFO
000000fc g     F .exceptions	000000d8 alt_irq_handler
00012324 g     O .rwdata	00000028 alt_dev_null
0000f898 g     F .text	00000038 alt_up_character_lcd_cursor_blink_on
0000ff08 g     F .text	00000074 alt_up_ps2_write_data_byte
000107c8 g     F .text	00000020 alt_dcache_flush_all
00006418 g     F .text	00000068 __hi0bits
0000cff4 g     F .text	00000080 .hidden __fixdfsi
0001387c g       *ABS*	00000000 __ram_rwdata_end
0001385c g     O .rwdata	00000008 alt_dev_list
0000ddbc g     F .text	000000f8 write
000005f4 g     F .text	000000bc .hidden __gtsf2
00011a80 g       *ABS*	00000000 __ram_rodata_end
0000d36c g     F .text	000000b0 fstat
000105cc g     F .text	00000094 alt_up_rs232_write_fd
00000000 g       *ABS*	00000000 __alt_mem_SDRAM
0000beec g     F .text	000000f4 .hidden __ledf2
00006764 g     F .text	00000140 __pow5mult
000075ac g     F .text	0000145c ___vfiprintf_internal_r
00015690 g     O .bss	00000004 __nlocale_changed
0000ab9c g     F .text	00000058 .hidden __umodsi3
000157f8 g       *ABS*	00000000 end
00010238 g     F .text	00000098 alt_up_ps2_write_fd
0000fa08 g     F .text	00000044 alt_up_irda_check_parity
0000e9f0 g     F .text	000000b4 altera_avalon_jtag_uart_init
000001d4 g     F .exceptions	00000074 alt_instruction_exception_entry
000115f0 g       *ABS*	00000000 __CTOR_LIST__
04000000 g       *ABS*	00000000 __alt_stack_pointer
0000f368 g     F .text	00000074 alt_avalon_timer_sc_init
000009ac g     F .text	00000064 .hidden __clzsi2
0000f0c8 g     F .text	00000224 altera_avalon_jtag_uart_write
00004d30 g     F .text	00000004 __sfp_lock_acquire
00005dd0 g     F .text	000000e4 memchr
0000f504 g     F .text	0000007c alt_up_character_lcd_write
00000a7c g     F .text	000021f8 ___vfprintf_internal_r
00004e94 g     F .text	00000310 _free_r
000053b4 g     F .text	00000010 __locale_mb_cur_max
0001143c g     F .text	00000180 __call_exitprocs
0001568c g     O .bss	00000004 __mlocale_changed
00013848 g     O .rwdata	00000004 __malloc_sbrk_base
00000248 g     F .text	0000003c _start
000156c0 g     O .bss	00000004 _alt_tick_rate
000068a4 g     F .text	00000148 __lshift
000156c4 g     O .bss	00000004 _alt_nticks
0000d9cc g     F .text	000000fc read
0000df20 g     F .text	0000096c alt_sys_init
0000f748 g     F .text	0000008c alt_up_character_lcd_shift_display
00000778 g     F .text	00000124 .hidden __floatsisf
00011324 g     F .text	00000118 __register_exitproc
00010154 g     F .text	00000058 alt_up_ps2_clear_fifo
00010408 g     F .text	0000003c alt_up_rs232_get_available_space_in_write_FIFO
0000656c g     F .text	000001f8 __multiply
0000f7d4 g     F .text	0000008c alt_up_character_lcd_erase_pos
0000ed54 g     F .text	00000068 altera_avalon_jtag_uart_close
00011a80 g       *ABS*	00000000 __ram_rwdata_start
000115f0 g       *ABS*	00000000 __ram_rodata_start
000156d0 g     O .bss	00000028 __malloc_current_mallinfo
00006db8 g     F .text	0000014c __d2b
0000e88c g     F .text	00000060 altera_avalon_jtag_uart_read_fd
0001108c g     F .text	000000a4 alt_get_fd
00008b40 g     F .text	00000054 _close_r
000112a8 g     F .text	0000007c memcmp
0000e94c g     F .text	00000050 altera_avalon_jtag_uart_close_fd
000157f8 g       *ABS*	00000000 __alt_stack_base
0000e99c g     F .text	00000054 altera_avalon_jtag_uart_ioctl_fd
0000f8d0 g     F .text	0000005c alt_up_irda_enable_read_interrupt
00002d4c g     F .text	00000154 __swsetup_r
0000b4a0 g     F .text	000008e8 .hidden __divdf3
00004bf0 g     F .text	00000118 __sfp
0000701c g     F .text	00000078 __copybits
00011f1c g     O .rwdata	00000408 __malloc_av_
00004d3c g     F .text	00000004 __sinit_lock_release
0000bfe0 g     F .text	00000718 .hidden __muldf3
000071e8 g     F .text	00000054 __sread
00010368 g     F .text	00000060 alt_up_rs232_disable_read_interrupt
00010f84 g     F .text	00000108 alt_find_file
00010824 g     F .text	000000a4 alt_dev_llist_insert
0000d948 g     F .text	00000024 __malloc_lock
0000db2c g     F .text	000000b0 sbrk
00004944 g     F .text	0000005c _fflush_r
00008b94 g     F .text	000000c4 _calloc_r
0000d41c g     F .text	000001d4 gettimeofday
00015678 g       *ABS*	00000000 __bss_start
00005ffc g     F .text	00000128 memset
00000378 g     F .text	0000027c main
000156bc g     O .bss	00000004 alt_envp
00015694 g     O .bss	00000004 __malloc_max_total_mem
0000e8ec g     F .text	00000060 altera_avalon_jtag_uart_write_fd
00009d90 g     F .text	00000018 __swbuf
000006b0 g     F .text	000000c8 .hidden __ltsf2
0000f6bc g     F .text	0000008c alt_up_character_lcd_shift_cursor
0000731c g     F .text	00000008 __sclose
04000000 g       *ABS*	00000000 __alt_heap_limit
00008d48 g     F .text	00000014 fclose
000100e4 g     F .text	00000070 alt_up_ps2_read_data_byte
000030a0 g     F .text	00001688 _dtoa_r
000055c4 g     F .text	0000080c _malloc_r
00009f04 g     F .text	00000030 __ascii_wctomb
00013868 g     O .rwdata	00000004 alt_errno
000051a4 g     F .text	000000c4 _fwalk
0000fa4c g     F .text	00000040 alt_up_irda_write_data
000102d0 g     F .text	0000003c alt_up_ps2_open_dev
0000aa40 g     F .text	00000084 .hidden __divsi3
0000f4c8 g     F .text	0000003c alt_up_character_lcd_open_dev
00004d70 g     F .text	00000124 _malloc_trim_r
0000fe4c g     F .text	0000005c alt_up_ps2_enable_read_interrupt
000115f0 g       *ABS*	00000000 __CTOR_END__
0000f490 g     F .text	00000038 alt_up_character_lcd_init
00007324 g     F .text	000000dc strcmp
000115f0 g       *ABS*	00000000 __flash_rodata_start
000115f0 g       *ABS*	00000000 __DTOR_LIST__
00010660 g     F .text	0000003c alt_up_rs232_open_dev
0000bd88 g     F .text	00000088 .hidden __nedf2
0000dee8 g     F .text	00000038 alt_irq_init
0000dac8 g     F .text	00000064 alt_release_fd
0000fd24 g     F .text	00000034 read_data_valid
0000f860 g     F .text	00000038 alt_up_character_lcd_cursor_off
0001163f g     O .rodata	00000100 .hidden __clz_tab
00015688 g     O .bss	00000004 _PathLocale
0000ffe4 g     F .text	00000064 alt_up_ps2_write_data_byte_with_ack
0001125c g     F .text	00000014 atexit
000005f4 g     F .text	000000bc .hidden __gesf2
00008ae0 g     F .text	00000060 _write_r
000053e4 g     F .text	00000018 setlocale
00013840 g     O .rwdata	00000004 _impure_ptr
000156b4 g     O .bss	00000004 alt_argc
00004728 g     F .text	0000021c __sflush_r
00015678 g     O .bss	00000008 t0
00010928 g     F .text	00000060 _do_dtors
000053d0 g     F .text	00000008 __locale_cjk_lang
09000000 g       *ABS*	00000000 __alt_mem_VGA_Subsystem_Char_Buf_Subsystem_Onchip_SRAM
00000020 g       .exceptions	00000000 alt_irq_entry
00006c48 g     F .text	00000064 __ulp
00004d58 g     F .text	00000018 __fp_unlock_all
00013854 g     O .rwdata	00000008 alt_fs_list
0001030c g     F .text	0000005c alt_up_rs232_enable_read_interrupt
00010488 g     F .text	00000040 alt_up_rs232_write_data
000156ac g     O .bss	00000008 alt_resettime
00000020 g       *ABS*	00000000 __ram_exceptions_start
000053fc g     F .text	0000000c localeconv
0001387c g       *ABS*	00000000 _edata
000157f8 g       *ABS*	00000000 _end
00008d5c g     F .text	00000164 __fputwc
00000248 g       *ABS*	00000000 __ram_exceptions_end
0000edbc g     F .text	000000f0 altera_avalon_jtag_uart_ioctl
00007244 g     F .text	0000007c __swrite
0001384c g     O .rwdata	00000004 __malloc_trim_threshold
000053c4 g     F .text	0000000c __locale_msgcharset
00011270 g     F .text	00000038 exit
0000fa8c g     F .text	00000074 alt_up_irda_read_data
00005268 g     F .text	000000c4 _fwalk_reent
0000fd84 g     F .text	000000c8 alt_up_ps2_init
00006a4c g     F .text	000001fc __mdiff
0000aac4 g     F .text	00000074 .hidden __modsi3
04000000 g       *ABS*	00000000 __alt_data_end
00000020 g     F .exceptions	00000000 alt_exception
00004d34 g     F .text	00000004 __sfp_lock_release
0000f580 g     F .text	00000078 alt_up_character_lcd_string
0000fc20 g     F .text	0000003c alt_up_irda_open_dev
000115bc g     F .text	00000034 _exit
0001069c g     F .text	0000012c alt_alarm_start
00005408 g     F .text	000001bc __smakebuf_r
0000ff7c g     F .text	00000068 alt_up_ps2_wait_for_ack
00007400 g     F .text	00000098 strlen
00010e0c g     F .text	00000154 open
0000be10 g     F .text	000000dc .hidden __gedf2
00013850 g     O .rwdata	00000004 __wctomb
00007594 g     F .text	00000018 __sprint_r
00010a18 g     F .text	00000034 alt_icache_flush_all
0000f648 g     F .text	00000074 alt_up_character_lcd_set_cursor_pos
00013878 g     O .rwdata	00000004 alt_priority_mask
00015680 g     O .bss	00000008 currentTime
00002c74 g     F .text	0000001c __vfprintf_internal
00009f34 g     F .text	0000005c _wctomb_r
000101ac g     F .text	0000008c alt_up_ps2_read_fd
0000c6f8 g     F .text	000008fc .hidden __subdf3
0000fb00 g     F .text	00000090 alt_up_irda_read_fd
00006480 g     F .text	000000b0 __lo0bits
00013870 g     O .rwdata	00000008 alt_alarm_list
000108c8 g     F .text	00000060 _do_ctors
00013838 g     O .rwdata	00000004 jumpDelay
000103c8 g     F .text	00000040 alt_up_rs232_get_used_space_in_read_FIFO
00009e44 g     F .text	000000c0 wcrtomb
0000d234 g     F .text	000000d0 close
0000d738 g     F .text	00000084 alt_load
00008ee4 g     F .text	00000080 fputwc
00004d38 g     F .text	00000004 __sinit_lock_acquire
000061f4 g     F .text	00000120 __multadd
000061cc g     F .text	00000028 _Bfree



Disassembly of section .entry:

00000000 <__reset>:
#if NIOS2_ICACHE_SIZE > 0 && defined(ALT_ALLOW_CODE_AT_RESET) && (!defined(ALT_SIM_OPTIMIZE) || defined(NIOS2_ECC_PRESENT))
    /* Assume the instruction cache size is always a power of two. */
#if NIOS2_ICACHE_SIZE > 0x8000
    movhi r2, %hi(NIOS2_ICACHE_SIZE)
#else
    movui r2, NIOS2_ICACHE_SIZE
   0:	00840014 	movui	r2,4096
#endif

0:
    initi r2
   4:	1001483a 	initi	r2
    addi r2, r2, -NIOS2_ICACHE_LINE_SIZE
   8:	10bff804 	addi	r2,r2,-32
    bgt r2, zero, 0b
   c:	00bffd16 	blt	zero,r2,4 <__alt_mem_VGA_Subsystem_Char_Buf_Subsystem_Onchip_SRAM+0xf7000004>
 * Jump to the _start entry point in the .text section if reset code
 * is allowed or if optimizing for RTL simulation.
 */
#if defined(ALT_ALLOW_CODE_AT_RESET) || defined(ALT_SIM_OPTIMIZE)
    /* Jump to the _start entry point in the .text section. */
    movhi r1, %hi(_start)
  10:	00400034 	movhi	at,0
    ori r1, r1, %lo(_start)
  14:	08409214 	ori	at,at,584
    jmp r1
  18:	0800683a 	jmp	at
  1c:	00000000 	call	0 <__reset>

Disassembly of section .exceptions:

00000020 <alt_exception>:

#else /* ALT_EXCEPTION_STACK disabled */
        /* 
         * Reserve space on normal stack for registers about to be pushed.
         */
        addi  sp, sp, -76
  20:	deffed04 	addi	sp,sp,-76
         * documentation for details).
         *
         * Leave a gap in the stack frame at 4(sp) for the muldiv handler to
         * store zero into.
         */
        stw   ra,  0(sp)
  24:	dfc00015 	stw	ra,0(sp)
        stw   r1,   8(sp)
  28:	d8400215 	stw	at,8(sp)
        stw   r2,  12(sp)
  2c:	d8800315 	stw	r2,12(sp)
        stw   r3,  16(sp)
  30:	d8c00415 	stw	r3,16(sp)
        stw   r4,  20(sp)
  34:	d9000515 	stw	r4,20(sp)
        stw   r5,  24(sp)
  38:	d9400615 	stw	r5,24(sp)
        stw   r6,  28(sp)
  3c:	d9800715 	stw	r6,28(sp)
        stw   r7,  32(sp)
  40:	d9c00815 	stw	r7,32(sp)
        rdctl r5, estatus   /* Read early to avoid usage stall */
  44:	000b307a 	rdctl	r5,estatus
        stw   r8,  36(sp)
  48:	da000915 	stw	r8,36(sp)
        stw   r9,  40(sp)
  4c:	da400a15 	stw	r9,40(sp)
        stw   r10, 44(sp)
  50:	da800b15 	stw	r10,44(sp)
        stw   r11, 48(sp)
  54:	dac00c15 	stw	r11,48(sp)
        stw   r12, 52(sp)
  58:	db000d15 	stw	r12,52(sp)
        stw   r13, 56(sp)
  5c:	db400e15 	stw	r13,56(sp)
        stw   r14, 60(sp)
  60:	db800f15 	stw	r14,60(sp)
        stw   r15, 64(sp)
  64:	dbc01015 	stw	r15,64(sp)
        /*
         * ea-4 contains the address of the instruction being executed
         * when the exception occured. For interrupt exceptions, we will
         * will be re-issue the isntruction. Store it in 72(sp)
         */
        stw   r5,  68(sp)  /* estatus */
  68:	d9401115 	stw	r5,68(sp)
        addi  r15, ea, -4  /* instruction that caused exception */
  6c:	ebffff04 	addi	r15,ea,-4
        stw   r15,  72(sp)
  70:	dbc01215 	stw	r15,72(sp)
#else
        /*
         * Test to see if the exception was a software exception or caused 
         * by an external interrupt, and vector accordingly.
         */
        rdctl r4, ipending
  74:	0009313a 	rdctl	r4,ipending
        andi  r2, r5, 1
  78:	2880004c 	andi	r2,r5,1
        beq   r2, zero, .Lnot_irq
  7c:	10000326 	beq	r2,zero,8c <alt_exception+0x6c>
        beq   r4, zero, .Lnot_irq
  80:	20000226 	beq	r4,zero,8c <alt_exception+0x6c>
        /*
         * Now that all necessary registers have been preserved, call 
         * alt_irq_handler() to process the interrupts.
         */

        call alt_irq_handler
  84:	00000fc0 	call	fc <alt_irq_handler>

        .section .exceptions.irqreturn, "xa"

        br    .Lexception_exit
  88:	00000706 	br	a8 <alt_exception+0x88>
         * upon completion, so we write ea (address of instruction *after*
         * the one where the exception occured) into 72(sp). The actual
         * instruction that caused the exception is written in r2, which these
         * handlers will utilize.
         */
        stw ea, 72(sp) /* EA is PC+4 so will skip over instruction causing exception */
  8c:	df401215 	stw	ea,72(sp)
.Lunknown_16bit:
        addi.n r4, r4, 2 /* Need PC+2 to skip over instruction causing exception */
        stw r4, 72(sp)

#else /* CDX is not Enabled and all instructions are 32bits */
        ldw r2, -4(ea) /* Instruction value that caused exception */
  90:	e8bfff17 	ldw	r2,-4(ea)
         * debugger is present) or go into an infinite loop since the
         * handling behavior is undefined; in that case we will not return here.
         */

        /* Load exception-causing address as first argument (r4) */
        addi   r4, ea, -4
  94:	e93fff04 	addi	r4,ea,-4

        /* Call the instruction-exception entry */
        call   alt_instruction_exception_entry
  98:	00001d40 	call	1d4 <alt_instruction_exception_entry>
         * instruction
         *
         * Return code was 0: Skip. The instruction after the exception is
         * already stored in 72(sp).
         */
        bne   r2, r0, .Lexception_exit
  9c:	1000021e 	bne	r2,zero,a8 <alt_exception+0x88>

        /*
         * Otherwise, modify 72(sp) to re-issue the instruction that caused the
         * exception.
         */
        addi  r15, ea, -4  /* instruction that caused exception */
  a0:	ebffff04 	addi	r15,ea,-4
        stw   r15,  72(sp)
  a4:	dbc01215 	stw	r15,72(sp)
        /* 
         * Restore the saved registers, so that all general purpose registers 
         * have been restored to their state at the time the interrupt occured.
         */

        ldw   r5,  68(sp)
  a8:	d9401117 	ldw	r5,68(sp)
        ldw   ea,  72(sp)  /* This becomes the PC once eret is executed */
  ac:	df401217 	ldw	ea,72(sp)
        ldw   ra,   0(sp)
  b0:	dfc00017 	ldw	ra,0(sp)

        wrctl estatus, r5
  b4:	2801707a 	wrctl	estatus,r5

        ldw   r1,   8(sp)
  b8:	d8400217 	ldw	at,8(sp)
        ldw   r2,  12(sp)
  bc:	d8800317 	ldw	r2,12(sp)
        ldw   r3,  16(sp)
  c0:	d8c00417 	ldw	r3,16(sp)
        ldw   r4,  20(sp)
  c4:	d9000517 	ldw	r4,20(sp)
        ldw   r5,  24(sp)
  c8:	d9400617 	ldw	r5,24(sp)
        ldw   r6,  28(sp)
  cc:	d9800717 	ldw	r6,28(sp)
        ldw   r7,  32(sp)
  d0:	d9c00817 	ldw	r7,32(sp)

#if defined(ALT_EXCEPTION_STACK) && defined(ALT_STACK_CHECK)
        ldw   et, %gprel(alt_exception_old_stack_limit)(gp)
#endif

        ldw   r8,  36(sp)
  d4:	da000917 	ldw	r8,36(sp)
        ldw   r9,  40(sp)
  d8:	da400a17 	ldw	r9,40(sp)
        ldw   r10, 44(sp)
  dc:	da800b17 	ldw	r10,44(sp)
        ldw   r11, 48(sp)
  e0:	dac00c17 	ldw	r11,48(sp)
        ldw   r12, 52(sp)
  e4:	db000d17 	ldw	r12,52(sp)
        ldw   r13, 56(sp)
  e8:	db400e17 	ldw	r13,56(sp)
        ldw   r14, 60(sp)
  ec:	db800f17 	ldw	r14,60(sp)
        ldw   r15, 64(sp)
  f0:	dbc01017 	ldw	r15,64(sp)
        stw   et, %gprel(alt_stack_limit_value)(gp)
        stw   zero, %gprel(alt_exception_old_stack_limit)(gp)
#endif /* ALT_STACK_CHECK */
        ldw   sp,  76(sp)
#else /* ALT_EXCEPTION_STACK disabled */
        addi  sp, sp, 76
  f4:	dec01304 	addi	sp,sp,76

        /*
         * Return to the interrupted instruction.
         */

        eret
  f8:	ef80083a 	eret

000000fc <alt_irq_handler>:
 * instruction is present if the macro ALT_CI_INTERRUPT_VECTOR defined.
 */

void alt_irq_handler (void) __attribute__ ((section (".exceptions")));
void alt_irq_handler (void)
{
  fc:	defff904 	addi	sp,sp,-28
 100:	dfc00615 	stw	ra,24(sp)
 104:	df000515 	stw	fp,20(sp)
 108:	df000504 	addi	fp,sp,20
  
  /*
   * Notify the operating system that we are at interrupt level.
   */ 
  
  ALT_OS_INT_ENTER();
 10c:	0001883a 	nop
#ifndef NIOS2_EIC_PRESENT
static ALT_INLINE alt_u32 ALT_ALWAYS_INLINE alt_irq_pending (void)
{
  alt_u32 active;

  NIOS2_READ_IPENDING (active);
 110:	0005313a 	rdctl	r2,ipending
 114:	e0bffe15 	stw	r2,-8(fp)

  return active;
 118:	e0bffe17 	ldw	r2,-8(fp)
   * Consider the case where the high priority interupt is asserted during
   * the interrupt entry sequence for a lower priority interrupt to see why
   * this is the case.
   */

  active = alt_irq_pending ();
 11c:	e0bffb15 	stw	r2,-20(fp)

  do
  {
    i = 0;
 120:	e03ffd15 	stw	zero,-12(fp)
    mask = 1;
 124:	00800044 	movi	r2,1
 128:	e0bffc15 	stw	r2,-16(fp)
     * called to clear the interrupt condition.
     */

    do
    {
      if (active & mask)
 12c:	e0fffb17 	ldw	r3,-20(fp)
 130:	e0bffc17 	ldw	r2,-16(fp)
 134:	1884703a 	and	r2,r3,r2
 138:	10001526 	beq	r2,zero,190 <alt_irq_handler+0x94>
      { 
#ifdef ALT_ENHANCED_INTERRUPT_API_PRESENT
        alt_irq[i].handler(alt_irq[i].context); 
#else
        alt_irq[i].handler(alt_irq[i].context, i); 
 13c:	00800074 	movhi	r2,1
 140:	1095be04 	addi	r2,r2,22264
 144:	e0fffd17 	ldw	r3,-12(fp)
 148:	180690fa 	slli	r3,r3,3
 14c:	10c5883a 	add	r2,r2,r3
 150:	10c00017 	ldw	r3,0(r2)
 154:	00800074 	movhi	r2,1
 158:	1095be04 	addi	r2,r2,22264
 15c:	e13ffd17 	ldw	r4,-12(fp)
 160:	200890fa 	slli	r4,r4,3
 164:	1105883a 	add	r2,r2,r4
 168:	10800104 	addi	r2,r2,4
 16c:	10800017 	ldw	r2,0(r2)
 170:	e17ffd17 	ldw	r5,-12(fp)
 174:	1009883a 	mov	r4,r2
 178:	183ee83a 	callr	r3
#endif
        break;
 17c:	0001883a 	nop
#ifndef NIOS2_EIC_PRESENT
static ALT_INLINE alt_u32 ALT_ALWAYS_INLINE alt_irq_pending (void)
{
  alt_u32 active;

  NIOS2_READ_IPENDING (active);
 180:	0005313a 	rdctl	r2,ipending
 184:	e0bfff15 	stw	r2,-4(fp)

  return active;
 188:	e0bfff17 	ldw	r2,-4(fp)
 18c:	00000706 	br	1ac <alt_irq_handler+0xb0>
      }
      mask <<= 1;
 190:	e0bffc17 	ldw	r2,-16(fp)
 194:	1085883a 	add	r2,r2,r2
 198:	e0bffc15 	stw	r2,-16(fp)
      i++;
 19c:	e0bffd17 	ldw	r2,-12(fp)
 1a0:	10800044 	addi	r2,r2,1
 1a4:	e0bffd15 	stw	r2,-12(fp)

    } while (1);
 1a8:	003fe006 	br	12c <__alt_mem_VGA_Subsystem_Char_Buf_Subsystem_Onchip_SRAM+0xf700012c>

    active = alt_irq_pending ();
 1ac:	e0bffb15 	stw	r2,-20(fp)
    
  } while (active);
 1b0:	e0bffb17 	ldw	r2,-20(fp)
 1b4:	103fda1e 	bne	r2,zero,120 <__alt_mem_VGA_Subsystem_Char_Buf_Subsystem_Onchip_SRAM+0xf7000120>

  /*
   * Notify the operating system that interrupt processing is complete.
   */ 

  ALT_OS_INT_EXIT();
 1b8:	0001883a 	nop
}
 1bc:	0001883a 	nop
 1c0:	e037883a 	mov	sp,fp
 1c4:	dfc00117 	ldw	ra,4(sp)
 1c8:	df000017 	ldw	fp,0(sp)
 1cc:	dec00204 	addi	sp,sp,8
 1d0:	f800283a 	ret

000001d4 <alt_instruction_exception_entry>:
 * that handler if it has been registered. Absent a handler, it will
 * break break or hang as discussed below.
 */
int 
alt_instruction_exception_entry (alt_u32 exception_pc)
{
 1d4:	defffb04 	addi	sp,sp,-20
 1d8:	dfc00415 	stw	ra,16(sp)
 1dc:	df000315 	stw	fp,12(sp)
 1e0:	df000304 	addi	fp,sp,12
 1e4:	e13fff15 	stw	r4,-4(fp)
 * NIOS2_EXCEPTION_CAUSE_NOT_PRESENT. Your handling routine should
 * check the validity of the cause argument before proceeding.
 */
#ifdef NIOS2_HAS_EXTRA_EXCEPTION_INFO
  /* Get exception cause & "badaddr" */
  NIOS2_READ_EXCEPTION(cause);
 1e8:	000531fa 	rdctl	r2,exception
 1ec:	e0bffd15 	stw	r2,-12(fp)
  cause = ( (cause & NIOS2_EXCEPTION_REG_CAUSE_MASK) >>
 1f0:	e0bffd17 	ldw	r2,-12(fp)
 1f4:	10801f0c 	andi	r2,r2,124
 1f8:	1004d0ba 	srli	r2,r2,2
 1fc:	e0bffd15 	stw	r2,-12(fp)
              NIOS2_EXCEPTION_REG_CAUSE_OFST );

  NIOS2_READ_BADADDR(badaddr);
 200:	0005333a 	rdctl	r2,badaddr
 204:	e0bffe15 	stw	r2,-8(fp)
#else
  cause = NIOS2_EXCEPTION_CAUSE_NOT_PRESENT;
  badaddr = 0;
#endif /* NIOS2_HAS_EXTRA_EXCEPTION_INFO */

  if(alt_instruction_exception_handler) {
 208:	d0a7a517 	ldw	r2,-24940(gp)
 20c:	10000726 	beq	r2,zero,22c <alt_instruction_exception_entry+0x58>
     * Call handler. Its return value indicates whether the exception-causing
     * instruction should be re-issued. The code that called us,
     * alt_eceptions_entry.S, will look at this value and adjust the ea
     * register as necessary
     */
    return alt_instruction_exception_handler(cause, exception_pc, badaddr);
 210:	d0a7a517 	ldw	r2,-24940(gp)
 214:	e0fffd17 	ldw	r3,-12(fp)
 218:	e1bffe17 	ldw	r6,-8(fp)
 21c:	e17fff17 	ldw	r5,-4(fp)
 220:	1809883a 	mov	r4,r3
 224:	103ee83a 	callr	r2
 228:	00000206 	br	234 <alt_instruction_exception_entry+0x60>
   *    (a peripheral which negates its interrupt output before its
   *    interrupt handler has been executed will cause spurious interrupts)
   */
  else {
#ifdef NIOS2_HAS_DEBUG_STUB
    NIOS2_BREAK();
 22c:	003da03a 	break	0
      ;
#endif /* NIOS2_HAS_DEBUG_STUB */
  }

  /* We should not get here. Remove compiler warning. */
  return NIOS2_EXCEPTION_RETURN_REISSUE_INST;
 230:	0005883a 	mov	r2,zero
}
 234:	e037883a 	mov	sp,fp
 238:	dfc00117 	ldw	ra,4(sp)
 23c:	df000017 	ldw	fp,0(sp)
 240:	dec00204 	addi	sp,sp,8
 244:	f800283a 	ret

Disassembly of section .text:

00000248 <_start>:

    /*
     * Now that the caches are initialized, set up the stack pointer and global pointer.
     * The values provided by the linker are assumed to be correctly aligned.
     */
    movhi sp, %hi(__alt_stack_pointer)
     248:	06c10034 	movhi	sp,1024
    ori sp, sp, %lo(__alt_stack_pointer)
     24c:	dec00014 	ori	sp,sp,0
    movhi gp, %hi(_gp)
     250:	06800074 	movhi	gp,1
    ori gp, gp, %lo(_gp)
     254:	d6ae0e14 	ori	gp,gp,47160
 */
#ifndef ALT_SIM_OPTIMIZE
    /* Log that the BSS is about to be cleared. */
    ALT_LOG_PUTS(alt_log_msg_bss)

    movhi r2, %hi(__bss_start)
     258:	00800074 	movhi	r2,1
    ori r2, r2, %lo(__bss_start)
     25c:	10959e14 	ori	r2,r2,22136

    movhi r3, %hi(__bss_end)
     260:	00c00074 	movhi	r3,1
    ori r3, r3, %lo(__bss_end)
     264:	18d5fe14 	ori	r3,r3,22520

    beq r2, r3, 1f
     268:	10c00326 	beq	r2,r3,278 <_start+0x30>

0:
    stw zero, (r2)
     26c:	10000015 	stw	zero,0(r2)
    addi r2, r2, 4
     270:	10800104 	addi	r2,r2,4
    bltu r2, r3, 0b
     274:	10fffd36 	bltu	r2,r3,26c <__alt_mem_VGA_Subsystem_Char_Buf_Subsystem_Onchip_SRAM+0xf700026c>
     * section aren't defined until alt_load() has been called).
     */
    mov   et, zero
#endif

    call alt_load
     278:	000d7380 	call	d738 <alt_load>

    /* Log that alt_main is about to be called. */
    ALT_LOG_PUTS(alt_log_msg_alt_main)

    /* Call the C entry point. It should never return. */
    call alt_main
     27c:	000d8cc0 	call	d8cc <alt_main>

00000280 <alt_after_alt_main>:

    /* Wait in infinite loop in case alt_main does return. */
alt_after_alt_main:
    br alt_after_alt_main
     280:	003fff06 	br	280 <__alt_mem_VGA_Subsystem_Char_Buf_Subsystem_Onchip_SRAM+0xf7000280>

00000284 <int_to_int>:

struct timeval currentTime;
//struct timeval previousDetectionMillis;
struct timeval t0;

unsigned int int_to_int(unsigned int k) {
     284:	defffc04 	addi	sp,sp,-16
     288:	dfc00315 	stw	ra,12(sp)
     28c:	df000215 	stw	fp,8(sp)
     290:	dc000115 	stw	r16,4(sp)
     294:	df000204 	addi	fp,sp,8
     298:	e13ffe15 	stw	r4,-8(fp)
	return (k == 0 || k == 1 ? k : ((k % 2) + 10 * int_to_int(k / 2)));
     29c:	e0bffe17 	ldw	r2,-8(fp)
     2a0:	10000c26 	beq	r2,zero,2d4 <int_to_int+0x50>
     2a4:	e0bffe17 	ldw	r2,-8(fp)
     2a8:	10800060 	cmpeqi	r2,r2,1
     2ac:	1000091e 	bne	r2,zero,2d4 <int_to_int+0x50>
     2b0:	e0bffe17 	ldw	r2,-8(fp)
     2b4:	1400004c 	andi	r16,r2,1
     2b8:	e0bffe17 	ldw	r2,-8(fp)
     2bc:	1004d07a 	srli	r2,r2,1
     2c0:	1009883a 	mov	r4,r2
     2c4:	00002840 	call	284 <int_to_int>
     2c8:	108002a4 	muli	r2,r2,10
     2cc:	8085883a 	add	r2,r16,r2
     2d0:	00000106 	br	2d8 <int_to_int+0x54>
     2d4:	e0bffe17 	ldw	r2,-8(fp)
}
     2d8:	e6ffff04 	addi	sp,fp,-4
     2dc:	dfc00217 	ldw	ra,8(sp)
     2e0:	df000117 	ldw	fp,4(sp)
     2e4:	dc000017 	ldw	r16,0(sp)
     2e8:	dec00304 	addi	sp,sp,12
     2ec:	f800283a 	ret

000002f0 <timedifference_msec>:

float timedifference_msec(struct timeval t0, struct timeval t1) {
     2f0:	defff904 	addi	sp,sp,-28
     2f4:	dfc00615 	stw	ra,24(sp)
     2f8:	df000515 	stw	fp,20(sp)
     2fc:	dc000415 	stw	r16,16(sp)
     300:	df000504 	addi	fp,sp,20
     304:	e13ffb15 	stw	r4,-20(fp)
     308:	e17ffc15 	stw	r5,-16(fp)
     30c:	e1bffd15 	stw	r6,-12(fp)
     310:	e1fffe15 	stw	r7,-8(fp)
	return (t1.tv_sec - t0.tv_sec) * 1000.0f
     314:	e0fffd17 	ldw	r3,-12(fp)
     318:	e0bffb17 	ldw	r2,-20(fp)
     31c:	1885c83a 	sub	r2,r3,r2
     320:	1009883a 	mov	r4,r2
     324:	00007780 	call	778 <__floatsisf>
     328:	1007883a 	mov	r3,r2
     32c:	00911eb4 	movhi	r2,17530
     330:	18a1ff32 	custom	252,r16,r3,r2
			+ (t1.tv_usec - t0.tv_usec) / 1000.0f;
     334:	e0fffe17 	ldw	r3,-8(fp)
     338:	e0bffc17 	ldw	r2,-16(fp)
     33c:	1885c83a 	sub	r2,r3,r2
     340:	1009883a 	mov	r4,r2
     344:	00007780 	call	778 <__floatsisf>
     348:	1007883a 	mov	r3,r2
     34c:	00911eb4 	movhi	r2,17530
     350:	1885fff2 	custom	255,r2,r3,r2
unsigned int int_to_int(unsigned int k) {
	return (k == 0 || k == 1 ? k : ((k % 2) + 10 * int_to_int(k / 2)));
}

float timedifference_msec(struct timeval t0, struct timeval t1) {
	return (t1.tv_sec - t0.tv_sec) * 1000.0f
     354:	8085ff72 	custom	253,r2,r16,r2
     358:	1007883a 	mov	r3,r2
			+ (t1.tv_usec - t0.tv_usec) / 1000.0f;
}
     35c:	1805883a 	mov	r2,r3
     360:	e6ffff04 	addi	sp,fp,-4
     364:	dfc00217 	ldw	ra,8(sp)
     368:	df000117 	ldw	fp,4(sp)
     36c:	dc000017 	ldw	r16,0(sp)
     370:	dec00304 	addi	sp,sp,12
     374:	f800283a 	ret

00000378 <main>:

int main() {
     378:	deffee04 	addi	sp,sp,-72
     37c:	dfc01115 	stw	ra,68(sp)
     380:	df001015 	stw	fp,64(sp)
     384:	dc400f15 	stw	r17,60(sp)
     388:	dc000e15 	stw	r16,56(sp)
     38c:	df001004 	addi	fp,sp,64
	gettimeofday(&t0, 0);
     390:	000b883a 	mov	r5,zero
     394:	d1279004 	addi	r4,gp,-25024
     398:	000d41c0 	call	d41c <gettimeofday>
	int jumpCounter = 0;
     39c:	e03ff215 	stw	zero,-56(fp)
	float previousDetectionMillis = 0;
     3a0:	e03ff315 	stw	zero,-52(fp)
	float jumps[5];
	while (1) {
		gettimeofday(&currentTime, 0);
     3a4:	000b883a 	mov	r5,zero
     3a8:	d1279204 	addi	r4,gp,-25016
     3ac:	000d41c0 	call	d41c <gettimeofday>
		float currentMillis = timedifference_msec(t0, currentTime);
     3b0:	d1a79217 	ldw	r6,-25016(gp)
     3b4:	d1e79317 	ldw	r7,-25012(gp)
     3b8:	d1279017 	ldw	r4,-25024(gp)
     3bc:	d1679117 	ldw	r5,-25020(gp)
     3c0:	00002f00 	call	2f0 <timedifference_msec>
     3c4:	e0bff515 	stw	r2,-44(fp)
		int total = int_to_int(read_PIO(GPI_BASE) % 100);
     3c8:	00820834 	movhi	r2,2080
     3cc:	10800804 	addi	r2,r2,32
     3d0:	10800037 	ldwio	r2,0(r2)
     3d4:	00c01904 	movi	r3,100
     3d8:	10c7283a 	div	r3,r2,r3
     3dc:	18c01924 	muli	r3,r3,100
     3e0:	10c5c83a 	sub	r2,r2,r3
     3e4:	1009883a 	mov	r4,r2
     3e8:	00002840 	call	284 <int_to_int>
     3ec:	e0bff615 	stw	r2,-40(fp)
		int foregroundLDR = total % 10; // register cacti
     3f0:	e0bff617 	ldw	r2,-40(fp)
     3f4:	00c00284 	movi	r3,10
     3f8:	10c7283a 	div	r3,r2,r3
     3fc:	18c002a4 	muli	r3,r3,10
     400:	10c5c83a 	sub	r2,r2,r3
     404:	e0bff715 	stw	r2,-36(fp)
		int backgroundLDR = (total / 10) % 10; // register background color
     408:	e0fff617 	ldw	r3,-40(fp)
     40c:	00800284 	movi	r2,10
     410:	1885283a 	div	r2,r3,r2
     414:	00c00284 	movi	r3,10
     418:	10c7283a 	div	r3,r2,r3
     41c:	18c002a4 	muli	r3,r3,10
     420:	10c5c83a 	sub	r2,r2,r3
     424:	e0bff815 	stw	r2,-32(fp)
		// printf("Foreground LDR: %d -- Background LDR: %d -- Total: %d \n", foregroundLDR, backgroundLDR, total);
		if (jumpCounter > 0) {
     428:	e0bff217 	ldw	r2,-56(fp)
     42c:	00804a0e 	bge	zero,r2,558 <main+0x1e0>
			//printf("Counter: %d -- Value: %d\n", jumpCounter, jumps[jumpCounter]);
			for (int i = 1; i <= sizeof(jumps)/sizeof(jumps[0]); i++) {
     430:	00800044 	movi	r2,1
     434:	e0bff415 	stw	r2,-48(fp)
     438:	00004206 	br	544 <main+0x1cc>
				if (currentMillis >= jumps[i] && jumps[i] > 0) {
     43c:	e0bff417 	ldw	r2,-48(fp)
     440:	1085883a 	add	r2,r2,r2
     444:	1085883a 	add	r2,r2,r2
     448:	e0fff204 	addi	r3,fp,-56
     44c:	1885883a 	add	r2,r3,r2
     450:	10800704 	addi	r2,r2,28
     454:	10c00017 	ldw	r3,0(r2)
     458:	e17ff517 	ldw	r5,-44(fp)
     45c:	1809883a 	mov	r4,r3
     460:	00006b00 	call	6b0 <__lesf2>
     464:	00803116 	blt	zero,r2,52c <main+0x1b4>
     468:	e0bff417 	ldw	r2,-48(fp)
     46c:	1085883a 	add	r2,r2,r2
     470:	1085883a 	add	r2,r2,r2
     474:	e13ff204 	addi	r4,fp,-56
     478:	2085883a 	add	r2,r4,r2
     47c:	10800704 	addi	r2,r2,28
     480:	10c00017 	ldw	r3,0(r2)
     484:	000b883a 	mov	r5,zero
     488:	1809883a 	mov	r4,r3
     48c:	00005f40 	call	5f4 <__gesf2>
     490:	0080260e 	bge	zero,r2,52c <main+0x1b4>
					write_PIO(GPO_BASE, 1 << 11); // jump
     494:	00c20004 	movi	r3,2048
     498:	00820834 	movhi	r2,2080
     49c:	10c00035 	stwio	r3,0(r2)
					printf("Jumps: %d -- detecttime: %f -- currentTime: %f\n", jumpCounter, jumps[i], currentMillis);
     4a0:	e0bff417 	ldw	r2,-48(fp)
     4a4:	1085883a 	add	r2,r2,r2
     4a8:	1085883a 	add	r2,r2,r2
     4ac:	e0fff204 	addi	r3,fp,-56
     4b0:	1885883a 	add	r2,r3,r2
     4b4:	10800704 	addi	r2,r2,28
     4b8:	10c00017 	ldw	r3,0(r2)
     4bc:	1809883a 	mov	r4,r3
     4c0:	000089c0 	call	89c <__extendsfdf2>
     4c4:	1021883a 	mov	r16,r2
     4c8:	1823883a 	mov	r17,r3
     4cc:	e13ff517 	ldw	r4,-44(fp)
     4d0:	000089c0 	call	89c <__extendsfdf2>
     4d4:	1009883a 	mov	r4,r2
     4d8:	180b883a 	mov	r5,r3
     4dc:	d9000015 	stw	r4,0(sp)
     4e0:	d9400115 	stw	r5,4(sp)
     4e4:	800d883a 	mov	r6,r16
     4e8:	880f883a 	mov	r7,r17
     4ec:	e17ff217 	ldw	r5,-56(fp)
     4f0:	01000074 	movhi	r4,1
     4f4:	21057c04 	addi	r4,r4,5616
     4f8:	0000a400 	call	a40 <printf>
					jumps[i] = 0;
     4fc:	e0bff417 	ldw	r2,-48(fp)
     500:	1085883a 	add	r2,r2,r2
     504:	1085883a 	add	r2,r2,r2
     508:	e13ff204 	addi	r4,fp,-56
     50c:	2085883a 	add	r2,r4,r2
     510:	10800704 	addi	r2,r2,28
     514:	10000015 	stw	zero,0(r2)
					if (i == 5) {
     518:	e0bff417 	ldw	r2,-48(fp)
     51c:	10800158 	cmpnei	r2,r2,5
     520:	10000c1e 	bne	r2,zero,554 <main+0x1dc>
						jumpCounter = 0;
     524:	e03ff215 	stw	zero,-56(fp)
					}
					break;
     528:	00000a06 	br	554 <main+0x1dc>
				} else {
					write_PIO(GPO_BASE, 0);
     52c:	0007883a 	mov	r3,zero
     530:	00820834 	movhi	r2,2080
     534:	10c00035 	stwio	r3,0(r2)
		int foregroundLDR = total % 10; // register cacti
		int backgroundLDR = (total / 10) % 10; // register background color
		// printf("Foreground LDR: %d -- Background LDR: %d -- Total: %d \n", foregroundLDR, backgroundLDR, total);
		if (jumpCounter > 0) {
			//printf("Counter: %d -- Value: %d\n", jumpCounter, jumps[jumpCounter]);
			for (int i = 1; i <= sizeof(jumps)/sizeof(jumps[0]); i++) {
     538:	e0bff417 	ldw	r2,-48(fp)
     53c:	10800044 	addi	r2,r2,1
     540:	e0bff415 	stw	r2,-48(fp)
     544:	e0bff417 	ldw	r2,-48(fp)
     548:	108001b0 	cmpltui	r2,r2,6
     54c:	103fbb1e 	bne	r2,zero,43c <__alt_mem_VGA_Subsystem_Char_Buf_Subsystem_Onchip_SRAM+0xf700043c>
     550:	00000106 	br	558 <main+0x1e0>
					printf("Jumps: %d -- detecttime: %f -- currentTime: %f\n", jumpCounter, jumps[i], currentMillis);
					jumps[i] = 0;
					if (i == 5) {
						jumpCounter = 0;
					}
					break;
     554:	0001883a 	nop
					write_PIO(GPO_BASE, 0);
				}
			}
		}
		// Only check for cacti once every tenth of a second so it won't flood pending jumps
		if (currentMillis - previousDetectionMillis >= 100) {
     558:	e0fff517 	ldw	r3,-44(fp)
     55c:	e0bff317 	ldw	r2,-52(fp)
     560:	1885ffb2 	custom	254,r2,r3,r2
     564:	0150b234 	movhi	r5,17096
     568:	1009883a 	mov	r4,r2
     56c:	00005f40 	call	5f4 <__gesf2>
     570:	10001f16 	blt	r2,zero,5f0 <main+0x278>
			// Use the 2 LDR's to check for cacti
			// The LDR which check the foreground has to be 1.4 times higher or lower than the background
			// This value is a threshold which will be exceded by the passing cacti
			if (foregroundLDR != backgroundLDR) {
     574:	e0fff717 	ldw	r3,-36(fp)
     578:	e0bff817 	ldw	r2,-32(fp)
     57c:	18bf8926 	beq	r3,r2,3a4 <__alt_mem_VGA_Subsystem_Char_Buf_Subsystem_Onchip_SRAM+0xf70003a4>
				previousDetectionMillis = currentMillis;
     580:	e0bff517 	ldw	r2,-44(fp)
     584:	e0bff315 	stw	r2,-52(fp)
				jumpCounter++;
     588:	e0bff217 	ldw	r2,-56(fp)
     58c:	10800044 	addi	r2,r2,1
     590:	e0bff215 	stw	r2,-56(fp)
				jumps[jumpCounter] = previousDetectionMillis + jumpDelay;
     594:	d0a00017 	ldw	r2,-32768(gp)
     598:	1009883a 	mov	r4,r2
     59c:	00007780 	call	778 <__floatsisf>
     5a0:	1007883a 	mov	r3,r2
     5a4:	e0bff317 	ldw	r2,-52(fp)
     5a8:	1887ff72 	custom	253,r3,r3,r2
     5ac:	e0bff217 	ldw	r2,-56(fp)
     5b0:	1085883a 	add	r2,r2,r2
     5b4:	1085883a 	add	r2,r2,r2
     5b8:	e13ff204 	addi	r4,fp,-56
     5bc:	2085883a 	add	r2,r4,r2
     5c0:	10800704 	addi	r2,r2,28
     5c4:	10c00015 	stw	r3,0(r2)
				printf("jumpcounter: %d -- millis: %f\n", jumpCounter, previousDetectionMillis);
     5c8:	e13ff317 	ldw	r4,-52(fp)
     5cc:	000089c0 	call	89c <__extendsfdf2>
     5d0:	1009883a 	mov	r4,r2
     5d4:	180b883a 	mov	r5,r3
     5d8:	200d883a 	mov	r6,r4
     5dc:	280f883a 	mov	r7,r5
     5e0:	e17ff217 	ldw	r5,-56(fp)
     5e4:	01000074 	movhi	r4,1
     5e8:	21058804 	addi	r4,r4,5664
     5ec:	0000a400 	call	a40 <printf>
			}
		}
	}
     5f0:	003f6c06 	br	3a4 <__alt_mem_VGA_Subsystem_Char_Buf_Subsystem_Onchip_SRAM+0xf70003a4>

000005f4 <__gesf2>:
     5f4:	2004d5fa 	srli	r2,r4,23
     5f8:	2806d5fa 	srli	r3,r5,23
     5fc:	01802034 	movhi	r6,128
     600:	31bfffc4 	addi	r6,r6,-1
     604:	10803fcc 	andi	r2,r2,255
     608:	01c03fc4 	movi	r7,255
     60c:	3110703a 	and	r8,r6,r4
     610:	18c03fcc 	andi	r3,r3,255
     614:	314c703a 	and	r6,r6,r5
     618:	2008d7fa 	srli	r4,r4,31
     61c:	280ad7fa 	srli	r5,r5,31
     620:	11c01926 	beq	r2,r7,688 <__gesf2+0x94>
     624:	01c03fc4 	movi	r7,255
     628:	19c00f26 	beq	r3,r7,668 <__gesf2+0x74>
     62c:	1000061e 	bne	r2,zero,648 <__gesf2+0x54>
     630:	400f003a 	cmpeq	r7,r8,zero
     634:	1800071e 	bne	r3,zero,654 <__gesf2+0x60>
     638:	3000061e 	bne	r6,zero,654 <__gesf2+0x60>
     63c:	0005883a 	mov	r2,zero
     640:	40000e1e 	bne	r8,zero,67c <__gesf2+0x88>
     644:	f800283a 	ret
     648:	18000a1e 	bne	r3,zero,674 <__gesf2+0x80>
     64c:	30000b26 	beq	r6,zero,67c <__gesf2+0x88>
     650:	000f883a 	mov	r7,zero
     654:	29403fcc 	andi	r5,r5,255
     658:	38000726 	beq	r7,zero,678 <__gesf2+0x84>
     65c:	28000826 	beq	r5,zero,680 <__gesf2+0x8c>
     660:	00800044 	movi	r2,1
     664:	f800283a 	ret
     668:	303ff026 	beq	r6,zero,62c <__alt_mem_VGA_Subsystem_Char_Buf_Subsystem_Onchip_SRAM+0xf700062c>
     66c:	00bfff84 	movi	r2,-2
     670:	f800283a 	ret
     674:	29403fcc 	andi	r5,r5,255
     678:	21400526 	beq	r4,r5,690 <__gesf2+0x9c>
     67c:	203ff826 	beq	r4,zero,660 <__alt_mem_VGA_Subsystem_Char_Buf_Subsystem_Onchip_SRAM+0xf7000660>
     680:	00bfffc4 	movi	r2,-1
     684:	f800283a 	ret
     688:	403fe626 	beq	r8,zero,624 <__alt_mem_VGA_Subsystem_Char_Buf_Subsystem_Onchip_SRAM+0xf7000624>
     68c:	003ff706 	br	66c <__alt_mem_VGA_Subsystem_Char_Buf_Subsystem_Onchip_SRAM+0xf700066c>
     690:	18bffa16 	blt	r3,r2,67c <__alt_mem_VGA_Subsystem_Char_Buf_Subsystem_Onchip_SRAM+0xf700067c>
     694:	10c00216 	blt	r2,r3,6a0 <__gesf2+0xac>
     698:	323ff836 	bltu	r6,r8,67c <__alt_mem_VGA_Subsystem_Char_Buf_Subsystem_Onchip_SRAM+0xf700067c>
     69c:	4180022e 	bgeu	r8,r6,6a8 <__gesf2+0xb4>
     6a0:	203fef1e 	bne	r4,zero,660 <__alt_mem_VGA_Subsystem_Char_Buf_Subsystem_Onchip_SRAM+0xf7000660>
     6a4:	003ff606 	br	680 <__alt_mem_VGA_Subsystem_Char_Buf_Subsystem_Onchip_SRAM+0xf7000680>
     6a8:	0005883a 	mov	r2,zero
     6ac:	f800283a 	ret

000006b0 <__lesf2>:
     6b0:	2004d5fa 	srli	r2,r4,23
     6b4:	280cd5fa 	srli	r6,r5,23
     6b8:	00c02034 	movhi	r3,128
     6bc:	18ffffc4 	addi	r3,r3,-1
     6c0:	10803fcc 	andi	r2,r2,255
     6c4:	01c03fc4 	movi	r7,255
     6c8:	1910703a 	and	r8,r3,r4
     6cc:	31803fcc 	andi	r6,r6,255
     6d0:	1946703a 	and	r3,r3,r5
     6d4:	2008d7fa 	srli	r4,r4,31
     6d8:	280ad7fa 	srli	r5,r5,31
     6dc:	11c01b26 	beq	r2,r7,74c <__lesf2+0x9c>
     6e0:	01c03fc4 	movi	r7,255
     6e4:	31c01126 	beq	r6,r7,72c <__lesf2+0x7c>
     6e8:	1000071e 	bne	r2,zero,708 <__lesf2+0x58>
     6ec:	400f003a 	cmpeq	r7,r8,zero
     6f0:	21003fcc 	andi	r4,r4,255
     6f4:	3000081e 	bne	r6,zero,718 <__lesf2+0x68>
     6f8:	1800071e 	bne	r3,zero,718 <__lesf2+0x68>
     6fc:	0005883a 	mov	r2,zero
     700:	40000f1e 	bne	r8,zero,740 <__lesf2+0x90>
     704:	f800283a 	ret
     708:	21003fcc 	andi	r4,r4,255
     70c:	30000a1e 	bne	r6,zero,738 <__lesf2+0x88>
     710:	18000b26 	beq	r3,zero,740 <__lesf2+0x90>
     714:	000f883a 	mov	r7,zero
     718:	29403fcc 	andi	r5,r5,255
     71c:	38000726 	beq	r7,zero,73c <__lesf2+0x8c>
     720:	28000826 	beq	r5,zero,744 <__lesf2+0x94>
     724:	00800044 	movi	r2,1
     728:	f800283a 	ret
     72c:	183fee26 	beq	r3,zero,6e8 <__alt_mem_VGA_Subsystem_Char_Buf_Subsystem_Onchip_SRAM+0xf70006e8>
     730:	00800084 	movi	r2,2
     734:	f800283a 	ret
     738:	29403fcc 	andi	r5,r5,255
     73c:	21400626 	beq	r4,r5,758 <__lesf2+0xa8>
     740:	203ff826 	beq	r4,zero,724 <__alt_mem_VGA_Subsystem_Char_Buf_Subsystem_Onchip_SRAM+0xf7000724>
     744:	00bfffc4 	movi	r2,-1
     748:	f800283a 	ret
     74c:	403fe426 	beq	r8,zero,6e0 <__alt_mem_VGA_Subsystem_Char_Buf_Subsystem_Onchip_SRAM+0xf70006e0>
     750:	00800084 	movi	r2,2
     754:	f800283a 	ret
     758:	30bff916 	blt	r6,r2,740 <__alt_mem_VGA_Subsystem_Char_Buf_Subsystem_Onchip_SRAM+0xf7000740>
     75c:	11800216 	blt	r2,r6,768 <__lesf2+0xb8>
     760:	1a3ff736 	bltu	r3,r8,740 <__alt_mem_VGA_Subsystem_Char_Buf_Subsystem_Onchip_SRAM+0xf7000740>
     764:	40c0022e 	bgeu	r8,r3,770 <__lesf2+0xc0>
     768:	203fee1e 	bne	r4,zero,724 <__alt_mem_VGA_Subsystem_Char_Buf_Subsystem_Onchip_SRAM+0xf7000724>
     76c:	003ff506 	br	744 <__alt_mem_VGA_Subsystem_Char_Buf_Subsystem_Onchip_SRAM+0xf7000744>
     770:	0005883a 	mov	r2,zero
     774:	f800283a 	ret

00000778 <__floatsisf>:
     778:	defffd04 	addi	sp,sp,-12
     77c:	dfc00215 	stw	ra,8(sp)
     780:	dc400115 	stw	r17,4(sp)
     784:	dc000015 	stw	r16,0(sp)
     788:	20003526 	beq	r4,zero,860 <__floatsisf+0xe8>
     78c:	2021883a 	mov	r16,r4
     790:	2022d7fa 	srli	r17,r4,31
     794:	20003616 	blt	r4,zero,870 <__floatsisf+0xf8>
     798:	8009883a 	mov	r4,r16
     79c:	00009ac0 	call	9ac <__clzsi2>
     7a0:	00c02784 	movi	r3,158
     7a4:	1887c83a 	sub	r3,r3,r2
     7a8:	01002584 	movi	r4,150
     7ac:	20c01416 	blt	r4,r3,800 <__floatsisf+0x88>
     7b0:	20c9c83a 	sub	r4,r4,r3
     7b4:	8120983a 	sll	r16,r16,r4
     7b8:	00802034 	movhi	r2,128
     7bc:	10bfffc4 	addi	r2,r2,-1
     7c0:	8809883a 	mov	r4,r17
     7c4:	80a0703a 	and	r16,r16,r2
     7c8:	18803fcc 	andi	r2,r3,255
     7cc:	100695fa 	slli	r3,r2,23
     7d0:	20803fcc 	andi	r2,r4,255
     7d4:	100897fa 	slli	r4,r2,31
     7d8:	00802034 	movhi	r2,128
     7dc:	10bfffc4 	addi	r2,r2,-1
     7e0:	8084703a 	and	r2,r16,r2
     7e4:	10c4b03a 	or	r2,r2,r3
     7e8:	1104b03a 	or	r2,r2,r4
     7ec:	dfc00217 	ldw	ra,8(sp)
     7f0:	dc400117 	ldw	r17,4(sp)
     7f4:	dc000017 	ldw	r16,0(sp)
     7f8:	dec00304 	addi	sp,sp,12
     7fc:	f800283a 	ret
     800:	01002644 	movi	r4,153
     804:	20c01c16 	blt	r4,r3,878 <__floatsisf+0x100>
     808:	20c9c83a 	sub	r4,r4,r3
     80c:	8120983a 	sll	r16,r16,r4
     810:	013f0034 	movhi	r4,64512
     814:	213fffc4 	addi	r4,r4,-1
     818:	814001cc 	andi	r5,r16,7
     81c:	8108703a 	and	r4,r16,r4
     820:	28000426 	beq	r5,zero,834 <__floatsisf+0xbc>
     824:	840003cc 	andi	r16,r16,15
     828:	01400104 	movi	r5,4
     82c:	81400126 	beq	r16,r5,834 <__floatsisf+0xbc>
     830:	2149883a 	add	r4,r4,r5
     834:	2141002c 	andhi	r5,r4,1024
     838:	28000526 	beq	r5,zero,850 <__floatsisf+0xd8>
     83c:	00c027c4 	movi	r3,159
     840:	1887c83a 	sub	r3,r3,r2
     844:	00bf0034 	movhi	r2,64512
     848:	10bfffc4 	addi	r2,r2,-1
     84c:	2088703a 	and	r4,r4,r2
     850:	202091ba 	slli	r16,r4,6
     854:	8809883a 	mov	r4,r17
     858:	8020d27a 	srli	r16,r16,9
     85c:	003fda06 	br	7c8 <__alt_mem_VGA_Subsystem_Char_Buf_Subsystem_Onchip_SRAM+0xf70007c8>
     860:	0009883a 	mov	r4,zero
     864:	0007883a 	mov	r3,zero
     868:	0021883a 	mov	r16,zero
     86c:	003fd606 	br	7c8 <__alt_mem_VGA_Subsystem_Char_Buf_Subsystem_Onchip_SRAM+0xf70007c8>
     870:	0121c83a 	sub	r16,zero,r4
     874:	003fc806 	br	798 <__alt_mem_VGA_Subsystem_Char_Buf_Subsystem_Onchip_SRAM+0xf7000798>
     878:	01002e44 	movi	r4,185
     87c:	20c9c83a 	sub	r4,r4,r3
     880:	01400144 	movi	r5,5
     884:	8108983a 	sll	r4,r16,r4
     888:	288bc83a 	sub	r5,r5,r2
     88c:	8160d83a 	srl	r16,r16,r5
     890:	2008c03a 	cmpne	r4,r4,zero
     894:	8120b03a 	or	r16,r16,r4
     898:	003fdd06 	br	810 <__alt_mem_VGA_Subsystem_Char_Buf_Subsystem_Onchip_SRAM+0xf7000810>

0000089c <__extendsfdf2>:
     89c:	200ad5fa 	srli	r5,r4,23
     8a0:	defffd04 	addi	sp,sp,-12
     8a4:	dc400115 	stw	r17,4(sp)
     8a8:	29403fcc 	andi	r5,r5,255
     8ac:	29800044 	addi	r6,r5,1
     8b0:	04402034 	movhi	r17,128
     8b4:	dc000015 	stw	r16,0(sp)
     8b8:	8c7fffc4 	addi	r17,r17,-1
     8bc:	dfc00215 	stw	ra,8(sp)
     8c0:	31803fcc 	andi	r6,r6,255
     8c4:	00800044 	movi	r2,1
     8c8:	8922703a 	and	r17,r17,r4
     8cc:	2020d7fa 	srli	r16,r4,31
     8d0:	1180110e 	bge	r2,r6,918 <__extendsfdf2+0x7c>
     8d4:	880cd0fa 	srli	r6,r17,3
     8d8:	8822977a 	slli	r17,r17,29
     8dc:	2940e004 	addi	r5,r5,896
     8e0:	2941ffcc 	andi	r5,r5,2047
     8e4:	2804953a 	slli	r2,r5,20
     8e8:	01400434 	movhi	r5,16
     8ec:	800697fa 	slli	r3,r16,31
     8f0:	297fffc4 	addi	r5,r5,-1
     8f4:	314a703a 	and	r5,r6,r5
     8f8:	288ab03a 	or	r5,r5,r2
     8fc:	28c6b03a 	or	r3,r5,r3
     900:	8805883a 	mov	r2,r17
     904:	dfc00217 	ldw	ra,8(sp)
     908:	dc400117 	ldw	r17,4(sp)
     90c:	dc000017 	ldw	r16,0(sp)
     910:	dec00304 	addi	sp,sp,12
     914:	f800283a 	ret
     918:	2800111e 	bne	r5,zero,960 <__extendsfdf2+0xc4>
     91c:	88001c26 	beq	r17,zero,990 <__extendsfdf2+0xf4>
     920:	8809883a 	mov	r4,r17
     924:	00009ac0 	call	9ac <__clzsi2>
     928:	00c00284 	movi	r3,10
     92c:	18801b16 	blt	r3,r2,99c <__extendsfdf2+0x100>
     930:	018002c4 	movi	r6,11
     934:	308dc83a 	sub	r6,r6,r2
     938:	11000544 	addi	r4,r2,21
     93c:	8986d83a 	srl	r3,r17,r6
     940:	8922983a 	sll	r17,r17,r4
     944:	0180e244 	movi	r6,905
     948:	01400434 	movhi	r5,16
     94c:	3085c83a 	sub	r2,r6,r2
     950:	297fffc4 	addi	r5,r5,-1
     954:	194c703a 	and	r6,r3,r5
     958:	1141ffcc 	andi	r5,r2,2047
     95c:	003fe006 	br	8e0 <__alt_mem_VGA_Subsystem_Char_Buf_Subsystem_Onchip_SRAM+0xf70008e0>
     960:	88000826 	beq	r17,zero,984 <__extendsfdf2+0xe8>
     964:	880cd0fa 	srli	r6,r17,3
     968:	00800434 	movhi	r2,16
     96c:	10bfffc4 	addi	r2,r2,-1
     970:	31800234 	orhi	r6,r6,8
     974:	8822977a 	slli	r17,r17,29
     978:	308c703a 	and	r6,r6,r2
     97c:	0141ffc4 	movi	r5,2047
     980:	003fd706 	br	8e0 <__alt_mem_VGA_Subsystem_Char_Buf_Subsystem_Onchip_SRAM+0xf70008e0>
     984:	0141ffc4 	movi	r5,2047
     988:	000d883a 	mov	r6,zero
     98c:	003fd406 	br	8e0 <__alt_mem_VGA_Subsystem_Char_Buf_Subsystem_Onchip_SRAM+0xf70008e0>
     990:	000b883a 	mov	r5,zero
     994:	000d883a 	mov	r6,zero
     998:	003fd106 	br	8e0 <__alt_mem_VGA_Subsystem_Char_Buf_Subsystem_Onchip_SRAM+0xf70008e0>
     99c:	11bffd44 	addi	r6,r2,-11
     9a0:	8986983a 	sll	r3,r17,r6
     9a4:	0023883a 	mov	r17,zero
     9a8:	003fe606 	br	944 <__alt_mem_VGA_Subsystem_Char_Buf_Subsystem_Onchip_SRAM+0xf7000944>

000009ac <__clzsi2>:
     9ac:	00bfffd4 	movui	r2,65535
     9b0:	11000536 	bltu	r2,r4,9c8 <__clzsi2+0x1c>
     9b4:	00803fc4 	movi	r2,255
     9b8:	11000f36 	bltu	r2,r4,9f8 <__clzsi2+0x4c>
     9bc:	00800804 	movi	r2,32
     9c0:	0007883a 	mov	r3,zero
     9c4:	00000506 	br	9dc <__clzsi2+0x30>
     9c8:	00804034 	movhi	r2,256
     9cc:	10bfffc4 	addi	r2,r2,-1
     9d0:	11000c2e 	bgeu	r2,r4,a04 <__clzsi2+0x58>
     9d4:	00800204 	movi	r2,8
     9d8:	00c00604 	movi	r3,24
     9dc:	20c8d83a 	srl	r4,r4,r3
     9e0:	00c00074 	movhi	r3,1
     9e4:	18c58fc4 	addi	r3,r3,5695
     9e8:	1909883a 	add	r4,r3,r4
     9ec:	20c00003 	ldbu	r3,0(r4)
     9f0:	10c5c83a 	sub	r2,r2,r3
     9f4:	f800283a 	ret
     9f8:	00800604 	movi	r2,24
     9fc:	00c00204 	movi	r3,8
     a00:	003ff606 	br	9dc <__alt_mem_VGA_Subsystem_Char_Buf_Subsystem_Onchip_SRAM+0xf70009dc>
     a04:	00800404 	movi	r2,16
     a08:	1007883a 	mov	r3,r2
     a0c:	003ff306 	br	9dc <__alt_mem_VGA_Subsystem_Char_Buf_Subsystem_Onchip_SRAM+0xf70009dc>

00000a10 <_printf_r>:
     a10:	defffd04 	addi	sp,sp,-12
     a14:	2805883a 	mov	r2,r5
     a18:	dfc00015 	stw	ra,0(sp)
     a1c:	d9800115 	stw	r6,4(sp)
     a20:	d9c00215 	stw	r7,8(sp)
     a24:	21400217 	ldw	r5,8(r4)
     a28:	d9c00104 	addi	r7,sp,4
     a2c:	100d883a 	mov	r6,r2
     a30:	0000a7c0 	call	a7c <___vfprintf_internal_r>
     a34:	dfc00017 	ldw	ra,0(sp)
     a38:	dec00304 	addi	sp,sp,12
     a3c:	f800283a 	ret

00000a40 <printf>:
     a40:	defffc04 	addi	sp,sp,-16
     a44:	dfc00015 	stw	ra,0(sp)
     a48:	d9400115 	stw	r5,4(sp)
     a4c:	d9800215 	stw	r6,8(sp)
     a50:	d9c00315 	stw	r7,12(sp)
     a54:	00800074 	movhi	r2,1
     a58:	108e1004 	addi	r2,r2,14400
     a5c:	10800017 	ldw	r2,0(r2)
     a60:	200b883a 	mov	r5,r4
     a64:	d9800104 	addi	r6,sp,4
     a68:	11000217 	ldw	r4,8(r2)
     a6c:	0002c740 	call	2c74 <__vfprintf_internal>
     a70:	dfc00017 	ldw	ra,0(sp)
     a74:	dec00404 	addi	sp,sp,16
     a78:	f800283a 	ret

00000a7c <___vfprintf_internal_r>:
     a7c:	deffb804 	addi	sp,sp,-288
     a80:	dfc04715 	stw	ra,284(sp)
     a84:	ddc04515 	stw	r23,276(sp)
     a88:	dd404315 	stw	r21,268(sp)
     a8c:	d9002c15 	stw	r4,176(sp)
     a90:	282f883a 	mov	r23,r5
     a94:	302b883a 	mov	r21,r6
     a98:	d9c02d15 	stw	r7,180(sp)
     a9c:	df004615 	stw	fp,280(sp)
     aa0:	dd804415 	stw	r22,272(sp)
     aa4:	dd004215 	stw	r20,264(sp)
     aa8:	dcc04115 	stw	r19,260(sp)
     aac:	dc804015 	stw	r18,256(sp)
     ab0:	dc403f15 	stw	r17,252(sp)
     ab4:	dc003e15 	stw	r16,248(sp)
     ab8:	00053d80 	call	53d8 <_localeconv_r>
     abc:	10800017 	ldw	r2,0(r2)
     ac0:	1009883a 	mov	r4,r2
     ac4:	d8803415 	stw	r2,208(sp)
     ac8:	00074000 	call	7400 <strlen>
     acc:	d8803715 	stw	r2,220(sp)
     ad0:	d8802c17 	ldw	r2,176(sp)
     ad4:	10000226 	beq	r2,zero,ae0 <___vfprintf_internal_r+0x64>
     ad8:	10800e17 	ldw	r2,56(r2)
     adc:	1000f926 	beq	r2,zero,ec4 <___vfprintf_internal_r+0x448>
     ae0:	b880030b 	ldhu	r2,12(r23)
     ae4:	10c8000c 	andi	r3,r2,8192
     ae8:	1800061e 	bne	r3,zero,b04 <___vfprintf_internal_r+0x88>
     aec:	b9001917 	ldw	r4,100(r23)
     af0:	00f7ffc4 	movi	r3,-8193
     af4:	10880014 	ori	r2,r2,8192
     af8:	20c6703a 	and	r3,r4,r3
     afc:	b880030d 	sth	r2,12(r23)
     b00:	b8c01915 	stw	r3,100(r23)
     b04:	10c0020c 	andi	r3,r2,8
     b08:	1800c126 	beq	r3,zero,e10 <___vfprintf_internal_r+0x394>
     b0c:	b8c00417 	ldw	r3,16(r23)
     b10:	1800bf26 	beq	r3,zero,e10 <___vfprintf_internal_r+0x394>
     b14:	1080068c 	andi	r2,r2,26
     b18:	00c00284 	movi	r3,10
     b1c:	10c0c426 	beq	r2,r3,e30 <___vfprintf_internal_r+0x3b4>
     b20:	d8c00404 	addi	r3,sp,16
     b24:	05000074 	movhi	r20,1
     b28:	d9001e04 	addi	r4,sp,120
     b2c:	a505e084 	addi	r20,r20,6018
     b30:	d8c01e15 	stw	r3,120(sp)
     b34:	d8002015 	stw	zero,128(sp)
     b38:	d8001f15 	stw	zero,124(sp)
     b3c:	d8003315 	stw	zero,204(sp)
     b40:	d8003615 	stw	zero,216(sp)
     b44:	d8003815 	stw	zero,224(sp)
     b48:	1811883a 	mov	r8,r3
     b4c:	d8003915 	stw	zero,228(sp)
     b50:	d8003a15 	stw	zero,232(sp)
     b54:	d8002f15 	stw	zero,188(sp)
     b58:	d9002815 	stw	r4,160(sp)
     b5c:	a8800007 	ldb	r2,0(r21)
     b60:	10027b26 	beq	r2,zero,1550 <___vfprintf_internal_r+0xad4>
     b64:	00c00944 	movi	r3,37
     b68:	a821883a 	mov	r16,r21
     b6c:	10c0021e 	bne	r2,r3,b78 <___vfprintf_internal_r+0xfc>
     b70:	00001406 	br	bc4 <___vfprintf_internal_r+0x148>
     b74:	10c00326 	beq	r2,r3,b84 <___vfprintf_internal_r+0x108>
     b78:	84000044 	addi	r16,r16,1
     b7c:	80800007 	ldb	r2,0(r16)
     b80:	103ffc1e 	bne	r2,zero,b74 <__alt_mem_VGA_Subsystem_Char_Buf_Subsystem_Onchip_SRAM+0xf7000b74>
     b84:	8563c83a 	sub	r17,r16,r21
     b88:	88000e26 	beq	r17,zero,bc4 <___vfprintf_internal_r+0x148>
     b8c:	d8c02017 	ldw	r3,128(sp)
     b90:	d8801f17 	ldw	r2,124(sp)
     b94:	45400015 	stw	r21,0(r8)
     b98:	1c47883a 	add	r3,r3,r17
     b9c:	10800044 	addi	r2,r2,1
     ba0:	d8c02015 	stw	r3,128(sp)
     ba4:	44400115 	stw	r17,4(r8)
     ba8:	d8801f15 	stw	r2,124(sp)
     bac:	00c001c4 	movi	r3,7
     bb0:	1880a716 	blt	r3,r2,e50 <___vfprintf_internal_r+0x3d4>
     bb4:	42000204 	addi	r8,r8,8
     bb8:	d9402f17 	ldw	r5,188(sp)
     bbc:	2c4b883a 	add	r5,r5,r17
     bc0:	d9402f15 	stw	r5,188(sp)
     bc4:	80800007 	ldb	r2,0(r16)
     bc8:	1000a826 	beq	r2,zero,e6c <___vfprintf_internal_r+0x3f0>
     bcc:	84400047 	ldb	r17,1(r16)
     bd0:	00bfffc4 	movi	r2,-1
     bd4:	85400044 	addi	r21,r16,1
     bd8:	d8002785 	stb	zero,158(sp)
     bdc:	0007883a 	mov	r3,zero
     be0:	000f883a 	mov	r7,zero
     be4:	d8802915 	stw	r2,164(sp)
     be8:	d8003115 	stw	zero,196(sp)
     bec:	0025883a 	mov	r18,zero
     bf0:	01401604 	movi	r5,88
     bf4:	01800244 	movi	r6,9
     bf8:	02800a84 	movi	r10,42
     bfc:	02401b04 	movi	r9,108
     c00:	ad400044 	addi	r21,r21,1
     c04:	88bff804 	addi	r2,r17,-32
     c08:	28830436 	bltu	r5,r2,181c <___vfprintf_internal_r+0xda0>
     c0c:	100490ba 	slli	r2,r2,2
     c10:	01000034 	movhi	r4,0
     c14:	21030904 	addi	r4,r4,3108
     c18:	1105883a 	add	r2,r2,r4
     c1c:	10800017 	ldw	r2,0(r2)
     c20:	1000683a 	jmp	r2
     c24:	0000173c 	xorhi	zero,zero,92
     c28:	0000181c 	xori	zero,zero,96
     c2c:	0000181c 	xori	zero,zero,96
     c30:	0000175c 	xori	zero,zero,93
     c34:	0000181c 	xori	zero,zero,96
     c38:	0000181c 	xori	zero,zero,96
     c3c:	0000181c 	xori	zero,zero,96
     c40:	0000181c 	xori	zero,zero,96
     c44:	0000181c 	xori	zero,zero,96
     c48:	0000181c 	xori	zero,zero,96
     c4c:	00000ed0 	cmplti	zero,zero,59
     c50:	00001678 	rdprs	zero,zero,89
     c54:	0000181c 	xori	zero,zero,96
     c58:	00000d98 	cmpnei	zero,zero,54
     c5c:	00000ef8 	rdprs	zero,zero,59
     c60:	0000181c 	xori	zero,zero,96
     c64:	00000f38 	rdprs	zero,zero,60
     c68:	00000f44 	movi	zero,61
     c6c:	00000f44 	movi	zero,61
     c70:	00000f44 	movi	zero,61
     c74:	00000f44 	movi	zero,61
     c78:	00000f44 	movi	zero,61
     c7c:	00000f44 	movi	zero,61
     c80:	00000f44 	movi	zero,61
     c84:	00000f44 	movi	zero,61
     c88:	00000f44 	movi	zero,61
     c8c:	0000181c 	xori	zero,zero,96
     c90:	0000181c 	xori	zero,zero,96
     c94:	0000181c 	xori	zero,zero,96
     c98:	0000181c 	xori	zero,zero,96
     c9c:	0000181c 	xori	zero,zero,96
     ca0:	0000181c 	xori	zero,zero,96
     ca4:	0000181c 	xori	zero,zero,96
     ca8:	0000181c 	xori	zero,zero,96
     cac:	0000181c 	xori	zero,zero,96
     cb0:	0000181c 	xori	zero,zero,96
     cb4:	00000f78 	rdprs	zero,zero,61
     cb8:	00001034 	movhi	zero,64
     cbc:	0000181c 	xori	zero,zero,96
     cc0:	00001034 	movhi	zero,64
     cc4:	0000181c 	xori	zero,zero,96
     cc8:	0000181c 	xori	zero,zero,96
     ccc:	0000181c 	xori	zero,zero,96
     cd0:	0000181c 	xori	zero,zero,96
     cd4:	000010d4 	movui	zero,67
     cd8:	0000181c 	xori	zero,zero,96
     cdc:	0000181c 	xori	zero,zero,96
     ce0:	000010e0 	cmpeqi	zero,zero,67
     ce4:	0000181c 	xori	zero,zero,96
     ce8:	0000181c 	xori	zero,zero,96
     cec:	0000181c 	xori	zero,zero,96
     cf0:	0000181c 	xori	zero,zero,96
     cf4:	0000181c 	xori	zero,zero,96
     cf8:	00001558 	cmpnei	zero,zero,85
     cfc:	0000181c 	xori	zero,zero,96
     d00:	0000181c 	xori	zero,zero,96
     d04:	000015b8 	rdprs	zero,zero,86
     d08:	0000181c 	xori	zero,zero,96
     d0c:	0000181c 	xori	zero,zero,96
     d10:	0000181c 	xori	zero,zero,96
     d14:	0000181c 	xori	zero,zero,96
     d18:	0000181c 	xori	zero,zero,96
     d1c:	0000181c 	xori	zero,zero,96
     d20:	0000181c 	xori	zero,zero,96
     d24:	0000181c 	xori	zero,zero,96
     d28:	0000181c 	xori	zero,zero,96
     d2c:	0000181c 	xori	zero,zero,96
     d30:	000017c8 	cmpgei	zero,zero,95
     d34:	00001768 	cmpgeui	zero,zero,93
     d38:	00001034 	movhi	zero,64
     d3c:	00001034 	movhi	zero,64
     d40:	00001034 	movhi	zero,64
     d44:	00001778 	rdprs	zero,zero,93
     d48:	00001768 	cmpgeui	zero,zero,93
     d4c:	0000181c 	xori	zero,zero,96
     d50:	0000181c 	xori	zero,zero,96
     d54:	00001784 	movi	zero,94
     d58:	0000181c 	xori	zero,zero,96
     d5c:	00001794 	movui	zero,94
     d60:	00001668 	cmpgeui	zero,zero,89
     d64:	00000da4 	muli	zero,zero,54
     d68:	00001688 	cmpgei	zero,zero,90
     d6c:	0000181c 	xori	zero,zero,96
     d70:	00001694 	movui	zero,90
     d74:	0000181c 	xori	zero,zero,96
     d78:	000016f0 	cmpltui	zero,zero,91
     d7c:	0000181c 	xori	zero,zero,96
     d80:	0000181c 	xori	zero,zero,96
     d84:	00001700 	call	170 <alt_irq_handler+0x74>
     d88:	d9003117 	ldw	r4,196(sp)
     d8c:	d8802d15 	stw	r2,180(sp)
     d90:	0109c83a 	sub	r4,zero,r4
     d94:	d9003115 	stw	r4,196(sp)
     d98:	94800114 	ori	r18,r18,4
     d9c:	ac400007 	ldb	r17,0(r21)
     da0:	003f9706 	br	c00 <__alt_mem_VGA_Subsystem_Char_Buf_Subsystem_Onchip_SRAM+0xf7000c00>
     da4:	00800c04 	movi	r2,48
     da8:	d9002d17 	ldw	r4,180(sp)
     dac:	d9402917 	ldw	r5,164(sp)
     db0:	d8802705 	stb	r2,156(sp)
     db4:	00801e04 	movi	r2,120
     db8:	d8802745 	stb	r2,157(sp)
     dbc:	d8002785 	stb	zero,158(sp)
     dc0:	20c00104 	addi	r3,r4,4
     dc4:	24c00017 	ldw	r19,0(r4)
     dc8:	002d883a 	mov	r22,zero
     dcc:	90800094 	ori	r2,r18,2
     dd0:	28029a16 	blt	r5,zero,183c <___vfprintf_internal_r+0xdc0>
     dd4:	00bfdfc4 	movi	r2,-129
     dd8:	90a4703a 	and	r18,r18,r2
     ddc:	d8c02d15 	stw	r3,180(sp)
     de0:	94800094 	ori	r18,r18,2
     de4:	9802871e 	bne	r19,zero,1804 <___vfprintf_internal_r+0xd88>
     de8:	00800074 	movhi	r2,1
     dec:	1085d904 	addi	r2,r2,5988
     df0:	d8803915 	stw	r2,228(sp)
     df4:	04401e04 	movi	r17,120
     df8:	d8802917 	ldw	r2,164(sp)
     dfc:	0039883a 	mov	fp,zero
     e00:	1001e926 	beq	r2,zero,15a8 <___vfprintf_internal_r+0xb2c>
     e04:	0027883a 	mov	r19,zero
     e08:	002d883a 	mov	r22,zero
     e0c:	00020506 	br	1624 <___vfprintf_internal_r+0xba8>
     e10:	d9002c17 	ldw	r4,176(sp)
     e14:	b80b883a 	mov	r5,r23
     e18:	0002d4c0 	call	2d4c <__swsetup_r>
     e1c:	1005ac1e 	bne	r2,zero,24d0 <___vfprintf_internal_r+0x1a54>
     e20:	b880030b 	ldhu	r2,12(r23)
     e24:	00c00284 	movi	r3,10
     e28:	1080068c 	andi	r2,r2,26
     e2c:	10ff3c1e 	bne	r2,r3,b20 <__alt_mem_VGA_Subsystem_Char_Buf_Subsystem_Onchip_SRAM+0xf7000b20>
     e30:	b880038f 	ldh	r2,14(r23)
     e34:	103f3a16 	blt	r2,zero,b20 <__alt_mem_VGA_Subsystem_Char_Buf_Subsystem_Onchip_SRAM+0xf7000b20>
     e38:	d9c02d17 	ldw	r7,180(sp)
     e3c:	d9002c17 	ldw	r4,176(sp)
     e40:	a80d883a 	mov	r6,r21
     e44:	b80b883a 	mov	r5,r23
     e48:	0002c900 	call	2c90 <__sbprintf>
     e4c:	00001106 	br	e94 <___vfprintf_internal_r+0x418>
     e50:	d9002c17 	ldw	r4,176(sp)
     e54:	d9801e04 	addi	r6,sp,120
     e58:	b80b883a 	mov	r5,r23
     e5c:	00075940 	call	7594 <__sprint_r>
     e60:	1000081e 	bne	r2,zero,e84 <___vfprintf_internal_r+0x408>
     e64:	da000404 	addi	r8,sp,16
     e68:	003f5306 	br	bb8 <__alt_mem_VGA_Subsystem_Char_Buf_Subsystem_Onchip_SRAM+0xf7000bb8>
     e6c:	d8802017 	ldw	r2,128(sp)
     e70:	10000426 	beq	r2,zero,e84 <___vfprintf_internal_r+0x408>
     e74:	d9002c17 	ldw	r4,176(sp)
     e78:	d9801e04 	addi	r6,sp,120
     e7c:	b80b883a 	mov	r5,r23
     e80:	00075940 	call	7594 <__sprint_r>
     e84:	b880030b 	ldhu	r2,12(r23)
     e88:	1080100c 	andi	r2,r2,64
     e8c:	1005901e 	bne	r2,zero,24d0 <___vfprintf_internal_r+0x1a54>
     e90:	d8802f17 	ldw	r2,188(sp)
     e94:	dfc04717 	ldw	ra,284(sp)
     e98:	df004617 	ldw	fp,280(sp)
     e9c:	ddc04517 	ldw	r23,276(sp)
     ea0:	dd804417 	ldw	r22,272(sp)
     ea4:	dd404317 	ldw	r21,268(sp)
     ea8:	dd004217 	ldw	r20,264(sp)
     eac:	dcc04117 	ldw	r19,260(sp)
     eb0:	dc804017 	ldw	r18,256(sp)
     eb4:	dc403f17 	ldw	r17,252(sp)
     eb8:	dc003e17 	ldw	r16,248(sp)
     ebc:	dec04804 	addi	sp,sp,288
     ec0:	f800283a 	ret
     ec4:	d9002c17 	ldw	r4,176(sp)
     ec8:	0004d200 	call	4d20 <__sinit>
     ecc:	003f0406 	br	ae0 <__alt_mem_VGA_Subsystem_Char_Buf_Subsystem_Onchip_SRAM+0xf7000ae0>
     ed0:	d8802d17 	ldw	r2,180(sp)
     ed4:	d9002d17 	ldw	r4,180(sp)
     ed8:	10800017 	ldw	r2,0(r2)
     edc:	d8803115 	stw	r2,196(sp)
     ee0:	20800104 	addi	r2,r4,4
     ee4:	d9003117 	ldw	r4,196(sp)
     ee8:	203fa716 	blt	r4,zero,d88 <__alt_mem_VGA_Subsystem_Char_Buf_Subsystem_Onchip_SRAM+0xf7000d88>
     eec:	d8802d15 	stw	r2,180(sp)
     ef0:	ac400007 	ldb	r17,0(r21)
     ef4:	003f4206 	br	c00 <__alt_mem_VGA_Subsystem_Char_Buf_Subsystem_Onchip_SRAM+0xf7000c00>
     ef8:	ac400007 	ldb	r17,0(r21)
     efc:	aac00044 	addi	r11,r21,1
     f00:	8a872826 	beq	r17,r10,2ba4 <___vfprintf_internal_r+0x2128>
     f04:	88bff404 	addi	r2,r17,-48
     f08:	0009883a 	mov	r4,zero
     f0c:	30867d36 	bltu	r6,r2,2904 <___vfprintf_internal_r+0x1e88>
     f10:	5c400007 	ldb	r17,0(r11)
     f14:	210002a4 	muli	r4,r4,10
     f18:	5d400044 	addi	r21,r11,1
     f1c:	a817883a 	mov	r11,r21
     f20:	2089883a 	add	r4,r4,r2
     f24:	88bff404 	addi	r2,r17,-48
     f28:	30bff92e 	bgeu	r6,r2,f10 <__alt_mem_VGA_Subsystem_Char_Buf_Subsystem_Onchip_SRAM+0xf7000f10>
     f2c:	2005c916 	blt	r4,zero,2654 <___vfprintf_internal_r+0x1bd8>
     f30:	d9002915 	stw	r4,164(sp)
     f34:	003f3306 	br	c04 <__alt_mem_VGA_Subsystem_Char_Buf_Subsystem_Onchip_SRAM+0xf7000c04>
     f38:	94802014 	ori	r18,r18,128
     f3c:	ac400007 	ldb	r17,0(r21)
     f40:	003f2f06 	br	c00 <__alt_mem_VGA_Subsystem_Char_Buf_Subsystem_Onchip_SRAM+0xf7000c00>
     f44:	a809883a 	mov	r4,r21
     f48:	d8003115 	stw	zero,196(sp)
     f4c:	88bff404 	addi	r2,r17,-48
     f50:	0017883a 	mov	r11,zero
     f54:	24400007 	ldb	r17,0(r4)
     f58:	5ac002a4 	muli	r11,r11,10
     f5c:	ad400044 	addi	r21,r21,1
     f60:	a809883a 	mov	r4,r21
     f64:	12d7883a 	add	r11,r2,r11
     f68:	88bff404 	addi	r2,r17,-48
     f6c:	30bff92e 	bgeu	r6,r2,f54 <__alt_mem_VGA_Subsystem_Char_Buf_Subsystem_Onchip_SRAM+0xf7000f54>
     f70:	dac03115 	stw	r11,196(sp)
     f74:	003f2306 	br	c04 <__alt_mem_VGA_Subsystem_Char_Buf_Subsystem_Onchip_SRAM+0xf7000c04>
     f78:	18c03fcc 	andi	r3,r3,255
     f7c:	18072b1e 	bne	r3,zero,2c2c <___vfprintf_internal_r+0x21b0>
     f80:	94800414 	ori	r18,r18,16
     f84:	9080080c 	andi	r2,r18,32
     f88:	10037b26 	beq	r2,zero,1d78 <___vfprintf_internal_r+0x12fc>
     f8c:	d9402d17 	ldw	r5,180(sp)
     f90:	28800117 	ldw	r2,4(r5)
     f94:	2cc00017 	ldw	r19,0(r5)
     f98:	29400204 	addi	r5,r5,8
     f9c:	d9402d15 	stw	r5,180(sp)
     fa0:	102d883a 	mov	r22,r2
     fa4:	10044b16 	blt	r2,zero,20d4 <___vfprintf_internal_r+0x1658>
     fa8:	d9402917 	ldw	r5,164(sp)
     fac:	df002783 	ldbu	fp,158(sp)
     fb0:	2803bc16 	blt	r5,zero,1ea4 <___vfprintf_internal_r+0x1428>
     fb4:	00ffdfc4 	movi	r3,-129
     fb8:	9d84b03a 	or	r2,r19,r22
     fbc:	90e4703a 	and	r18,r18,r3
     fc0:	10017726 	beq	r2,zero,15a0 <___vfprintf_internal_r+0xb24>
     fc4:	b0038326 	beq	r22,zero,1dd4 <___vfprintf_internal_r+0x1358>
     fc8:	dc402a15 	stw	r17,168(sp)
     fcc:	dc001e04 	addi	r16,sp,120
     fd0:	b023883a 	mov	r17,r22
     fd4:	402d883a 	mov	r22,r8
     fd8:	9809883a 	mov	r4,r19
     fdc:	880b883a 	mov	r5,r17
     fe0:	01800284 	movi	r6,10
     fe4:	000f883a 	mov	r7,zero
     fe8:	000a5080 	call	a508 <__umoddi3>
     fec:	10800c04 	addi	r2,r2,48
     ff0:	843fffc4 	addi	r16,r16,-1
     ff4:	9809883a 	mov	r4,r19
     ff8:	880b883a 	mov	r5,r17
     ffc:	80800005 	stb	r2,0(r16)
    1000:	01800284 	movi	r6,10
    1004:	000f883a 	mov	r7,zero
    1008:	0009f900 	call	9f90 <__udivdi3>
    100c:	1027883a 	mov	r19,r2
    1010:	10c4b03a 	or	r2,r2,r3
    1014:	1823883a 	mov	r17,r3
    1018:	103fef1e 	bne	r2,zero,fd8 <__alt_mem_VGA_Subsystem_Char_Buf_Subsystem_Onchip_SRAM+0xf7000fd8>
    101c:	d8c02817 	ldw	r3,160(sp)
    1020:	dc402a17 	ldw	r17,168(sp)
    1024:	b011883a 	mov	r8,r22
    1028:	1c07c83a 	sub	r3,r3,r16
    102c:	d8c02e15 	stw	r3,184(sp)
    1030:	00005906 	br	1198 <___vfprintf_internal_r+0x71c>
    1034:	18c03fcc 	andi	r3,r3,255
    1038:	1806fa1e 	bne	r3,zero,2c24 <___vfprintf_internal_r+0x21a8>
    103c:	9080020c 	andi	r2,r18,8
    1040:	10048a26 	beq	r2,zero,226c <___vfprintf_internal_r+0x17f0>
    1044:	d8c02d17 	ldw	r3,180(sp)
    1048:	d9002d17 	ldw	r4,180(sp)
    104c:	d9402d17 	ldw	r5,180(sp)
    1050:	18c00017 	ldw	r3,0(r3)
    1054:	21000117 	ldw	r4,4(r4)
    1058:	29400204 	addi	r5,r5,8
    105c:	d8c03615 	stw	r3,216(sp)
    1060:	d9003815 	stw	r4,224(sp)
    1064:	d9402d15 	stw	r5,180(sp)
    1068:	d9003617 	ldw	r4,216(sp)
    106c:	d9403817 	ldw	r5,224(sp)
    1070:	da003d15 	stw	r8,244(sp)
    1074:	04000044 	movi	r16,1
    1078:	00071200 	call	7120 <__fpclassifyd>
    107c:	da003d17 	ldw	r8,244(sp)
    1080:	14041f1e 	bne	r2,r16,2100 <___vfprintf_internal_r+0x1684>
    1084:	d9003617 	ldw	r4,216(sp)
    1088:	d9403817 	ldw	r5,224(sp)
    108c:	000d883a 	mov	r6,zero
    1090:	000f883a 	mov	r7,zero
    1094:	000beec0 	call	beec <__ledf2>
    1098:	da003d17 	ldw	r8,244(sp)
    109c:	1005be16 	blt	r2,zero,2798 <___vfprintf_internal_r+0x1d1c>
    10a0:	df002783 	ldbu	fp,158(sp)
    10a4:	008011c4 	movi	r2,71
    10a8:	1445330e 	bge	r2,r17,2578 <___vfprintf_internal_r+0x1afc>
    10ac:	04000074 	movhi	r16,1
    10b0:	8405d104 	addi	r16,r16,5956
    10b4:	00c000c4 	movi	r3,3
    10b8:	00bfdfc4 	movi	r2,-129
    10bc:	d8c02a15 	stw	r3,168(sp)
    10c0:	90a4703a 	and	r18,r18,r2
    10c4:	d8c02e15 	stw	r3,184(sp)
    10c8:	d8002915 	stw	zero,164(sp)
    10cc:	d8003215 	stw	zero,200(sp)
    10d0:	00003706 	br	11b0 <___vfprintf_internal_r+0x734>
    10d4:	94800214 	ori	r18,r18,8
    10d8:	ac400007 	ldb	r17,0(r21)
    10dc:	003ec806 	br	c00 <__alt_mem_VGA_Subsystem_Char_Buf_Subsystem_Onchip_SRAM+0xf7000c00>
    10e0:	18c03fcc 	andi	r3,r3,255
    10e4:	1806db1e 	bne	r3,zero,2c54 <___vfprintf_internal_r+0x21d8>
    10e8:	94800414 	ori	r18,r18,16
    10ec:	9080080c 	andi	r2,r18,32
    10f0:	1002d826 	beq	r2,zero,1c54 <___vfprintf_internal_r+0x11d8>
    10f4:	d9402d17 	ldw	r5,180(sp)
    10f8:	d8c02917 	ldw	r3,164(sp)
    10fc:	d8002785 	stb	zero,158(sp)
    1100:	28800204 	addi	r2,r5,8
    1104:	2cc00017 	ldw	r19,0(r5)
    1108:	2d800117 	ldw	r22,4(r5)
    110c:	18048f16 	blt	r3,zero,234c <___vfprintf_internal_r+0x18d0>
    1110:	013fdfc4 	movi	r4,-129
    1114:	9d86b03a 	or	r3,r19,r22
    1118:	d8802d15 	stw	r2,180(sp)
    111c:	9124703a 	and	r18,r18,r4
    1120:	1802d91e 	bne	r3,zero,1c88 <___vfprintf_internal_r+0x120c>
    1124:	d8c02917 	ldw	r3,164(sp)
    1128:	0039883a 	mov	fp,zero
    112c:	1805c326 	beq	r3,zero,283c <___vfprintf_internal_r+0x1dc0>
    1130:	0027883a 	mov	r19,zero
    1134:	002d883a 	mov	r22,zero
    1138:	dc001e04 	addi	r16,sp,120
    113c:	9806d0fa 	srli	r3,r19,3
    1140:	b008977a 	slli	r4,r22,29
    1144:	b02cd0fa 	srli	r22,r22,3
    1148:	9cc001cc 	andi	r19,r19,7
    114c:	98800c04 	addi	r2,r19,48
    1150:	843fffc4 	addi	r16,r16,-1
    1154:	20e6b03a 	or	r19,r4,r3
    1158:	80800005 	stb	r2,0(r16)
    115c:	9d86b03a 	or	r3,r19,r22
    1160:	183ff61e 	bne	r3,zero,113c <__alt_mem_VGA_Subsystem_Char_Buf_Subsystem_Onchip_SRAM+0xf700113c>
    1164:	90c0004c 	andi	r3,r18,1
    1168:	18013b26 	beq	r3,zero,1658 <___vfprintf_internal_r+0xbdc>
    116c:	10803fcc 	andi	r2,r2,255
    1170:	1080201c 	xori	r2,r2,128
    1174:	10bfe004 	addi	r2,r2,-128
    1178:	00c00c04 	movi	r3,48
    117c:	10c13626 	beq	r2,r3,1658 <___vfprintf_internal_r+0xbdc>
    1180:	80ffffc5 	stb	r3,-1(r16)
    1184:	d8c02817 	ldw	r3,160(sp)
    1188:	80bfffc4 	addi	r2,r16,-1
    118c:	1021883a 	mov	r16,r2
    1190:	1887c83a 	sub	r3,r3,r2
    1194:	d8c02e15 	stw	r3,184(sp)
    1198:	d8802e17 	ldw	r2,184(sp)
    119c:	d9002917 	ldw	r4,164(sp)
    11a0:	1100010e 	bge	r2,r4,11a8 <___vfprintf_internal_r+0x72c>
    11a4:	2005883a 	mov	r2,r4
    11a8:	d8802a15 	stw	r2,168(sp)
    11ac:	d8003215 	stw	zero,200(sp)
    11b0:	e7003fcc 	andi	fp,fp,255
    11b4:	e700201c 	xori	fp,fp,128
    11b8:	e73fe004 	addi	fp,fp,-128
    11bc:	e0000326 	beq	fp,zero,11cc <___vfprintf_internal_r+0x750>
    11c0:	d8c02a17 	ldw	r3,168(sp)
    11c4:	18c00044 	addi	r3,r3,1
    11c8:	d8c02a15 	stw	r3,168(sp)
    11cc:	90c0008c 	andi	r3,r18,2
    11d0:	d8c02b15 	stw	r3,172(sp)
    11d4:	18000326 	beq	r3,zero,11e4 <___vfprintf_internal_r+0x768>
    11d8:	d8c02a17 	ldw	r3,168(sp)
    11dc:	18c00084 	addi	r3,r3,2
    11e0:	d8c02a15 	stw	r3,168(sp)
    11e4:	90c0210c 	andi	r3,r18,132
    11e8:	d8c03015 	stw	r3,192(sp)
    11ec:	1801a31e 	bne	r3,zero,187c <___vfprintf_internal_r+0xe00>
    11f0:	d9003117 	ldw	r4,196(sp)
    11f4:	d8c02a17 	ldw	r3,168(sp)
    11f8:	20e7c83a 	sub	r19,r4,r3
    11fc:	04c19f0e 	bge	zero,r19,187c <___vfprintf_internal_r+0xe00>
    1200:	02400404 	movi	r9,16
    1204:	d8c02017 	ldw	r3,128(sp)
    1208:	d8801f17 	ldw	r2,124(sp)
    120c:	4cc50d0e 	bge	r9,r19,2644 <___vfprintf_internal_r+0x1bc8>
    1210:	01400074 	movhi	r5,1
    1214:	2945e484 	addi	r5,r5,6034
    1218:	dc403b15 	stw	r17,236(sp)
    121c:	d9403515 	stw	r5,212(sp)
    1220:	9823883a 	mov	r17,r19
    1224:	482d883a 	mov	r22,r9
    1228:	9027883a 	mov	r19,r18
    122c:	070001c4 	movi	fp,7
    1230:	8025883a 	mov	r18,r16
    1234:	dc002c17 	ldw	r16,176(sp)
    1238:	00000306 	br	1248 <___vfprintf_internal_r+0x7cc>
    123c:	8c7ffc04 	addi	r17,r17,-16
    1240:	42000204 	addi	r8,r8,8
    1244:	b440130e 	bge	r22,r17,1294 <___vfprintf_internal_r+0x818>
    1248:	01000074 	movhi	r4,1
    124c:	18c00404 	addi	r3,r3,16
    1250:	10800044 	addi	r2,r2,1
    1254:	2105e484 	addi	r4,r4,6034
    1258:	41000015 	stw	r4,0(r8)
    125c:	45800115 	stw	r22,4(r8)
    1260:	d8c02015 	stw	r3,128(sp)
    1264:	d8801f15 	stw	r2,124(sp)
    1268:	e0bff40e 	bge	fp,r2,123c <__alt_mem_VGA_Subsystem_Char_Buf_Subsystem_Onchip_SRAM+0xf700123c>
    126c:	d9801e04 	addi	r6,sp,120
    1270:	b80b883a 	mov	r5,r23
    1274:	8009883a 	mov	r4,r16
    1278:	00075940 	call	7594 <__sprint_r>
    127c:	103f011e 	bne	r2,zero,e84 <__alt_mem_VGA_Subsystem_Char_Buf_Subsystem_Onchip_SRAM+0xf7000e84>
    1280:	8c7ffc04 	addi	r17,r17,-16
    1284:	d8c02017 	ldw	r3,128(sp)
    1288:	d8801f17 	ldw	r2,124(sp)
    128c:	da000404 	addi	r8,sp,16
    1290:	b47fed16 	blt	r22,r17,1248 <__alt_mem_VGA_Subsystem_Char_Buf_Subsystem_Onchip_SRAM+0xf7001248>
    1294:	9021883a 	mov	r16,r18
    1298:	9825883a 	mov	r18,r19
    129c:	8827883a 	mov	r19,r17
    12a0:	dc403b17 	ldw	r17,236(sp)
    12a4:	d9403517 	ldw	r5,212(sp)
    12a8:	98c7883a 	add	r3,r19,r3
    12ac:	10800044 	addi	r2,r2,1
    12b0:	41400015 	stw	r5,0(r8)
    12b4:	44c00115 	stw	r19,4(r8)
    12b8:	d8c02015 	stw	r3,128(sp)
    12bc:	d8801f15 	stw	r2,124(sp)
    12c0:	010001c4 	movi	r4,7
    12c4:	2082a316 	blt	r4,r2,1d54 <___vfprintf_internal_r+0x12d8>
    12c8:	df002787 	ldb	fp,158(sp)
    12cc:	42000204 	addi	r8,r8,8
    12d0:	e0000c26 	beq	fp,zero,1304 <___vfprintf_internal_r+0x888>
    12d4:	d8801f17 	ldw	r2,124(sp)
    12d8:	d9002784 	addi	r4,sp,158
    12dc:	18c00044 	addi	r3,r3,1
    12e0:	10800044 	addi	r2,r2,1
    12e4:	41000015 	stw	r4,0(r8)
    12e8:	01000044 	movi	r4,1
    12ec:	41000115 	stw	r4,4(r8)
    12f0:	d8c02015 	stw	r3,128(sp)
    12f4:	d8801f15 	stw	r2,124(sp)
    12f8:	010001c4 	movi	r4,7
    12fc:	20823c16 	blt	r4,r2,1bf0 <___vfprintf_internal_r+0x1174>
    1300:	42000204 	addi	r8,r8,8
    1304:	d8802b17 	ldw	r2,172(sp)
    1308:	10000c26 	beq	r2,zero,133c <___vfprintf_internal_r+0x8c0>
    130c:	d8801f17 	ldw	r2,124(sp)
    1310:	d9002704 	addi	r4,sp,156
    1314:	18c00084 	addi	r3,r3,2
    1318:	10800044 	addi	r2,r2,1
    131c:	41000015 	stw	r4,0(r8)
    1320:	01000084 	movi	r4,2
    1324:	41000115 	stw	r4,4(r8)
    1328:	d8c02015 	stw	r3,128(sp)
    132c:	d8801f15 	stw	r2,124(sp)
    1330:	010001c4 	movi	r4,7
    1334:	20823616 	blt	r4,r2,1c10 <___vfprintf_internal_r+0x1194>
    1338:	42000204 	addi	r8,r8,8
    133c:	d9003017 	ldw	r4,192(sp)
    1340:	00802004 	movi	r2,128
    1344:	20819926 	beq	r4,r2,19ac <___vfprintf_internal_r+0xf30>
    1348:	d9402917 	ldw	r5,164(sp)
    134c:	d8802e17 	ldw	r2,184(sp)
    1350:	28adc83a 	sub	r22,r5,r2
    1354:	0580310e 	bge	zero,r22,141c <___vfprintf_internal_r+0x9a0>
    1358:	07000404 	movi	fp,16
    135c:	d8801f17 	ldw	r2,124(sp)
    1360:	e584140e 	bge	fp,r22,23b4 <___vfprintf_internal_r+0x1938>
    1364:	01400074 	movhi	r5,1
    1368:	2945e084 	addi	r5,r5,6018
    136c:	dc402915 	stw	r17,164(sp)
    1370:	d9402b15 	stw	r5,172(sp)
    1374:	b023883a 	mov	r17,r22
    1378:	04c001c4 	movi	r19,7
    137c:	a82d883a 	mov	r22,r21
    1380:	902b883a 	mov	r21,r18
    1384:	8025883a 	mov	r18,r16
    1388:	dc002c17 	ldw	r16,176(sp)
    138c:	00000306 	br	139c <___vfprintf_internal_r+0x920>
    1390:	8c7ffc04 	addi	r17,r17,-16
    1394:	42000204 	addi	r8,r8,8
    1398:	e440110e 	bge	fp,r17,13e0 <___vfprintf_internal_r+0x964>
    139c:	18c00404 	addi	r3,r3,16
    13a0:	10800044 	addi	r2,r2,1
    13a4:	45000015 	stw	r20,0(r8)
    13a8:	47000115 	stw	fp,4(r8)
    13ac:	d8c02015 	stw	r3,128(sp)
    13b0:	d8801f15 	stw	r2,124(sp)
    13b4:	98bff60e 	bge	r19,r2,1390 <__alt_mem_VGA_Subsystem_Char_Buf_Subsystem_Onchip_SRAM+0xf7001390>
    13b8:	d9801e04 	addi	r6,sp,120
    13bc:	b80b883a 	mov	r5,r23
    13c0:	8009883a 	mov	r4,r16
    13c4:	00075940 	call	7594 <__sprint_r>
    13c8:	103eae1e 	bne	r2,zero,e84 <__alt_mem_VGA_Subsystem_Char_Buf_Subsystem_Onchip_SRAM+0xf7000e84>
    13cc:	8c7ffc04 	addi	r17,r17,-16
    13d0:	d8c02017 	ldw	r3,128(sp)
    13d4:	d8801f17 	ldw	r2,124(sp)
    13d8:	da000404 	addi	r8,sp,16
    13dc:	e47fef16 	blt	fp,r17,139c <__alt_mem_VGA_Subsystem_Char_Buf_Subsystem_Onchip_SRAM+0xf700139c>
    13e0:	9021883a 	mov	r16,r18
    13e4:	a825883a 	mov	r18,r21
    13e8:	b02b883a 	mov	r21,r22
    13ec:	882d883a 	mov	r22,r17
    13f0:	dc402917 	ldw	r17,164(sp)
    13f4:	d9002b17 	ldw	r4,172(sp)
    13f8:	1d87883a 	add	r3,r3,r22
    13fc:	10800044 	addi	r2,r2,1
    1400:	41000015 	stw	r4,0(r8)
    1404:	45800115 	stw	r22,4(r8)
    1408:	d8c02015 	stw	r3,128(sp)
    140c:	d8801f15 	stw	r2,124(sp)
    1410:	010001c4 	movi	r4,7
    1414:	2081ee16 	blt	r4,r2,1bd0 <___vfprintf_internal_r+0x1154>
    1418:	42000204 	addi	r8,r8,8
    141c:	9080400c 	andi	r2,r18,256
    1420:	1001181e 	bne	r2,zero,1884 <___vfprintf_internal_r+0xe08>
    1424:	d9402e17 	ldw	r5,184(sp)
    1428:	d8801f17 	ldw	r2,124(sp)
    142c:	44000015 	stw	r16,0(r8)
    1430:	1947883a 	add	r3,r3,r5
    1434:	10800044 	addi	r2,r2,1
    1438:	41400115 	stw	r5,4(r8)
    143c:	d8c02015 	stw	r3,128(sp)
    1440:	d8801f15 	stw	r2,124(sp)
    1444:	010001c4 	movi	r4,7
    1448:	2081d316 	blt	r4,r2,1b98 <___vfprintf_internal_r+0x111c>
    144c:	42000204 	addi	r8,r8,8
    1450:	9480010c 	andi	r18,r18,4
    1454:	90003226 	beq	r18,zero,1520 <___vfprintf_internal_r+0xaa4>
    1458:	d9403117 	ldw	r5,196(sp)
    145c:	d8802a17 	ldw	r2,168(sp)
    1460:	28a1c83a 	sub	r16,r5,r2
    1464:	04002e0e 	bge	zero,r16,1520 <___vfprintf_internal_r+0xaa4>
    1468:	04400404 	movi	r17,16
    146c:	d8801f17 	ldw	r2,124(sp)
    1470:	8c04a20e 	bge	r17,r16,26fc <___vfprintf_internal_r+0x1c80>
    1474:	01400074 	movhi	r5,1
    1478:	2945e484 	addi	r5,r5,6034
    147c:	d9403515 	stw	r5,212(sp)
    1480:	048001c4 	movi	r18,7
    1484:	dcc02c17 	ldw	r19,176(sp)
    1488:	00000306 	br	1498 <___vfprintf_internal_r+0xa1c>
    148c:	843ffc04 	addi	r16,r16,-16
    1490:	42000204 	addi	r8,r8,8
    1494:	8c00130e 	bge	r17,r16,14e4 <___vfprintf_internal_r+0xa68>
    1498:	01000074 	movhi	r4,1
    149c:	18c00404 	addi	r3,r3,16
    14a0:	10800044 	addi	r2,r2,1
    14a4:	2105e484 	addi	r4,r4,6034
    14a8:	41000015 	stw	r4,0(r8)
    14ac:	44400115 	stw	r17,4(r8)
    14b0:	d8c02015 	stw	r3,128(sp)
    14b4:	d8801f15 	stw	r2,124(sp)
    14b8:	90bff40e 	bge	r18,r2,148c <__alt_mem_VGA_Subsystem_Char_Buf_Subsystem_Onchip_SRAM+0xf700148c>
    14bc:	d9801e04 	addi	r6,sp,120
    14c0:	b80b883a 	mov	r5,r23
    14c4:	9809883a 	mov	r4,r19
    14c8:	00075940 	call	7594 <__sprint_r>
    14cc:	103e6d1e 	bne	r2,zero,e84 <__alt_mem_VGA_Subsystem_Char_Buf_Subsystem_Onchip_SRAM+0xf7000e84>
    14d0:	843ffc04 	addi	r16,r16,-16
    14d4:	d8c02017 	ldw	r3,128(sp)
    14d8:	d8801f17 	ldw	r2,124(sp)
    14dc:	da000404 	addi	r8,sp,16
    14e0:	8c3fed16 	blt	r17,r16,1498 <__alt_mem_VGA_Subsystem_Char_Buf_Subsystem_Onchip_SRAM+0xf7001498>
    14e4:	d9403517 	ldw	r5,212(sp)
    14e8:	1c07883a 	add	r3,r3,r16
    14ec:	10800044 	addi	r2,r2,1
    14f0:	41400015 	stw	r5,0(r8)
    14f4:	44000115 	stw	r16,4(r8)
    14f8:	d8c02015 	stw	r3,128(sp)
    14fc:	d8801f15 	stw	r2,124(sp)
    1500:	010001c4 	movi	r4,7
    1504:	2080060e 	bge	r4,r2,1520 <___vfprintf_internal_r+0xaa4>
    1508:	d9002c17 	ldw	r4,176(sp)
    150c:	d9801e04 	addi	r6,sp,120
    1510:	b80b883a 	mov	r5,r23
    1514:	00075940 	call	7594 <__sprint_r>
    1518:	103e5a1e 	bne	r2,zero,e84 <__alt_mem_VGA_Subsystem_Char_Buf_Subsystem_Onchip_SRAM+0xf7000e84>
    151c:	d8c02017 	ldw	r3,128(sp)
    1520:	d8803117 	ldw	r2,196(sp)
    1524:	d9002a17 	ldw	r4,168(sp)
    1528:	1100010e 	bge	r2,r4,1530 <___vfprintf_internal_r+0xab4>
    152c:	2005883a 	mov	r2,r4
    1530:	d9402f17 	ldw	r5,188(sp)
    1534:	288b883a 	add	r5,r5,r2
    1538:	d9402f15 	stw	r5,188(sp)
    153c:	18019e1e 	bne	r3,zero,1bb8 <___vfprintf_internal_r+0x113c>
    1540:	a8800007 	ldb	r2,0(r21)
    1544:	d8001f15 	stw	zero,124(sp)
    1548:	da000404 	addi	r8,sp,16
    154c:	103d851e 	bne	r2,zero,b64 <__alt_mem_VGA_Subsystem_Char_Buf_Subsystem_Onchip_SRAM+0xf7000b64>
    1550:	a821883a 	mov	r16,r21
    1554:	003d9b06 	br	bc4 <__alt_mem_VGA_Subsystem_Char_Buf_Subsystem_Onchip_SRAM+0xf7000bc4>
    1558:	18c03fcc 	andi	r3,r3,255
    155c:	1805c11e 	bne	r3,zero,2c64 <___vfprintf_internal_r+0x21e8>
    1560:	94800414 	ori	r18,r18,16
    1564:	9080080c 	andi	r2,r18,32
    1568:	10020c26 	beq	r2,zero,1d9c <___vfprintf_internal_r+0x1320>
    156c:	d8802d17 	ldw	r2,180(sp)
    1570:	d9002917 	ldw	r4,164(sp)
    1574:	d8002785 	stb	zero,158(sp)
    1578:	10c00204 	addi	r3,r2,8
    157c:	14c00017 	ldw	r19,0(r2)
    1580:	15800117 	ldw	r22,4(r2)
    1584:	20040f16 	blt	r4,zero,25c4 <___vfprintf_internal_r+0x1b48>
    1588:	013fdfc4 	movi	r4,-129
    158c:	9d84b03a 	or	r2,r19,r22
    1590:	d8c02d15 	stw	r3,180(sp)
    1594:	9124703a 	and	r18,r18,r4
    1598:	0039883a 	mov	fp,zero
    159c:	103e891e 	bne	r2,zero,fc4 <__alt_mem_VGA_Subsystem_Char_Buf_Subsystem_Onchip_SRAM+0xf7000fc4>
    15a0:	d9002917 	ldw	r4,164(sp)
    15a4:	2002c11e 	bne	r4,zero,20ac <___vfprintf_internal_r+0x1630>
    15a8:	d8002915 	stw	zero,164(sp)
    15ac:	d8002e15 	stw	zero,184(sp)
    15b0:	dc001e04 	addi	r16,sp,120
    15b4:	003ef806 	br	1198 <__alt_mem_VGA_Subsystem_Char_Buf_Subsystem_Onchip_SRAM+0xf7001198>
    15b8:	18c03fcc 	andi	r3,r3,255
    15bc:	18059d1e 	bne	r3,zero,2c34 <___vfprintf_internal_r+0x21b8>
    15c0:	01400074 	movhi	r5,1
    15c4:	2945d404 	addi	r5,r5,5968
    15c8:	d9403915 	stw	r5,228(sp)
    15cc:	9080080c 	andi	r2,r18,32
    15d0:	10005226 	beq	r2,zero,171c <___vfprintf_internal_r+0xca0>
    15d4:	d8802d17 	ldw	r2,180(sp)
    15d8:	14c00017 	ldw	r19,0(r2)
    15dc:	15800117 	ldw	r22,4(r2)
    15e0:	10800204 	addi	r2,r2,8
    15e4:	d8802d15 	stw	r2,180(sp)
    15e8:	9080004c 	andi	r2,r18,1
    15ec:	10019026 	beq	r2,zero,1c30 <___vfprintf_internal_r+0x11b4>
    15f0:	9d84b03a 	or	r2,r19,r22
    15f4:	10036926 	beq	r2,zero,239c <___vfprintf_internal_r+0x1920>
    15f8:	d8c02917 	ldw	r3,164(sp)
    15fc:	00800c04 	movi	r2,48
    1600:	d8802705 	stb	r2,156(sp)
    1604:	dc402745 	stb	r17,157(sp)
    1608:	d8002785 	stb	zero,158(sp)
    160c:	90800094 	ori	r2,r18,2
    1610:	18045d16 	blt	r3,zero,2788 <___vfprintf_internal_r+0x1d0c>
    1614:	00bfdfc4 	movi	r2,-129
    1618:	90a4703a 	and	r18,r18,r2
    161c:	94800094 	ori	r18,r18,2
    1620:	0039883a 	mov	fp,zero
    1624:	d9003917 	ldw	r4,228(sp)
    1628:	dc001e04 	addi	r16,sp,120
    162c:	988003cc 	andi	r2,r19,15
    1630:	b006973a 	slli	r3,r22,28
    1634:	2085883a 	add	r2,r4,r2
    1638:	9826d13a 	srli	r19,r19,4
    163c:	10800003 	ldbu	r2,0(r2)
    1640:	b02cd13a 	srli	r22,r22,4
    1644:	843fffc4 	addi	r16,r16,-1
    1648:	1ce6b03a 	or	r19,r3,r19
    164c:	80800005 	stb	r2,0(r16)
    1650:	9d84b03a 	or	r2,r19,r22
    1654:	103ff51e 	bne	r2,zero,162c <__alt_mem_VGA_Subsystem_Char_Buf_Subsystem_Onchip_SRAM+0xf700162c>
    1658:	d8c02817 	ldw	r3,160(sp)
    165c:	1c07c83a 	sub	r3,r3,r16
    1660:	d8c02e15 	stw	r3,184(sp)
    1664:	003ecc06 	br	1198 <__alt_mem_VGA_Subsystem_Char_Buf_Subsystem_Onchip_SRAM+0xf7001198>
    1668:	18c03fcc 	andi	r3,r3,255
    166c:	183e9f26 	beq	r3,zero,10ec <__alt_mem_VGA_Subsystem_Char_Buf_Subsystem_Onchip_SRAM+0xf70010ec>
    1670:	d9c02785 	stb	r7,158(sp)
    1674:	003e9d06 	br	10ec <__alt_mem_VGA_Subsystem_Char_Buf_Subsystem_Onchip_SRAM+0xf70010ec>
    1678:	00c00044 	movi	r3,1
    167c:	01c00ac4 	movi	r7,43
    1680:	ac400007 	ldb	r17,0(r21)
    1684:	003d5e06 	br	c00 <__alt_mem_VGA_Subsystem_Char_Buf_Subsystem_Onchip_SRAM+0xf7000c00>
    1688:	94800814 	ori	r18,r18,32
    168c:	ac400007 	ldb	r17,0(r21)
    1690:	003d5b06 	br	c00 <__alt_mem_VGA_Subsystem_Char_Buf_Subsystem_Onchip_SRAM+0xf7000c00>
    1694:	d8c02d17 	ldw	r3,180(sp)
    1698:	d8002785 	stb	zero,158(sp)
    169c:	1c000017 	ldw	r16,0(r3)
    16a0:	1cc00104 	addi	r19,r3,4
    16a4:	80041926 	beq	r16,zero,270c <___vfprintf_internal_r+0x1c90>
    16a8:	d9002917 	ldw	r4,164(sp)
    16ac:	2003d016 	blt	r4,zero,25f0 <___vfprintf_internal_r+0x1b74>
    16b0:	200d883a 	mov	r6,r4
    16b4:	000b883a 	mov	r5,zero
    16b8:	8009883a 	mov	r4,r16
    16bc:	da003d15 	stw	r8,244(sp)
    16c0:	0005dd00 	call	5dd0 <memchr>
    16c4:	da003d17 	ldw	r8,244(sp)
    16c8:	10045426 	beq	r2,zero,281c <___vfprintf_internal_r+0x1da0>
    16cc:	1405c83a 	sub	r2,r2,r16
    16d0:	d8802e15 	stw	r2,184(sp)
    16d4:	1003cc16 	blt	r2,zero,2608 <___vfprintf_internal_r+0x1b8c>
    16d8:	df002783 	ldbu	fp,158(sp)
    16dc:	d8802a15 	stw	r2,168(sp)
    16e0:	dcc02d15 	stw	r19,180(sp)
    16e4:	d8002915 	stw	zero,164(sp)
    16e8:	d8003215 	stw	zero,200(sp)
    16ec:	003eb006 	br	11b0 <__alt_mem_VGA_Subsystem_Char_Buf_Subsystem_Onchip_SRAM+0xf70011b0>
    16f0:	18c03fcc 	andi	r3,r3,255
    16f4:	183f9b26 	beq	r3,zero,1564 <__alt_mem_VGA_Subsystem_Char_Buf_Subsystem_Onchip_SRAM+0xf7001564>
    16f8:	d9c02785 	stb	r7,158(sp)
    16fc:	003f9906 	br	1564 <__alt_mem_VGA_Subsystem_Char_Buf_Subsystem_Onchip_SRAM+0xf7001564>
    1700:	18c03fcc 	andi	r3,r3,255
    1704:	1805551e 	bne	r3,zero,2c5c <___vfprintf_internal_r+0x21e0>
    1708:	01400074 	movhi	r5,1
    170c:	2945d904 	addi	r5,r5,5988
    1710:	d9403915 	stw	r5,228(sp)
    1714:	9080080c 	andi	r2,r18,32
    1718:	103fae1e 	bne	r2,zero,15d4 <__alt_mem_VGA_Subsystem_Char_Buf_Subsystem_Onchip_SRAM+0xf70015d4>
    171c:	9080040c 	andi	r2,r18,16
    1720:	1002de26 	beq	r2,zero,229c <___vfprintf_internal_r+0x1820>
    1724:	d8c02d17 	ldw	r3,180(sp)
    1728:	002d883a 	mov	r22,zero
    172c:	1cc00017 	ldw	r19,0(r3)
    1730:	18c00104 	addi	r3,r3,4
    1734:	d8c02d15 	stw	r3,180(sp)
    1738:	003fab06 	br	15e8 <__alt_mem_VGA_Subsystem_Char_Buf_Subsystem_Onchip_SRAM+0xf70015e8>
    173c:	38803fcc 	andi	r2,r7,255
    1740:	1080201c 	xori	r2,r2,128
    1744:	10bfe004 	addi	r2,r2,-128
    1748:	1002d21e 	bne	r2,zero,2294 <___vfprintf_internal_r+0x1818>
    174c:	00c00044 	movi	r3,1
    1750:	01c00804 	movi	r7,32
    1754:	ac400007 	ldb	r17,0(r21)
    1758:	003d2906 	br	c00 <__alt_mem_VGA_Subsystem_Char_Buf_Subsystem_Onchip_SRAM+0xf7000c00>
    175c:	94800054 	ori	r18,r18,1
    1760:	ac400007 	ldb	r17,0(r21)
    1764:	003d2606 	br	c00 <__alt_mem_VGA_Subsystem_Char_Buf_Subsystem_Onchip_SRAM+0xf7000c00>
    1768:	18c03fcc 	andi	r3,r3,255
    176c:	183e0526 	beq	r3,zero,f84 <__alt_mem_VGA_Subsystem_Char_Buf_Subsystem_Onchip_SRAM+0xf7000f84>
    1770:	d9c02785 	stb	r7,158(sp)
    1774:	003e0306 	br	f84 <__alt_mem_VGA_Subsystem_Char_Buf_Subsystem_Onchip_SRAM+0xf7000f84>
    1778:	94801014 	ori	r18,r18,64
    177c:	ac400007 	ldb	r17,0(r21)
    1780:	003d1f06 	br	c00 <__alt_mem_VGA_Subsystem_Char_Buf_Subsystem_Onchip_SRAM+0xf7000c00>
    1784:	ac400007 	ldb	r17,0(r21)
    1788:	8a438726 	beq	r17,r9,25a8 <___vfprintf_internal_r+0x1b2c>
    178c:	94800414 	ori	r18,r18,16
    1790:	003d1b06 	br	c00 <__alt_mem_VGA_Subsystem_Char_Buf_Subsystem_Onchip_SRAM+0xf7000c00>
    1794:	18c03fcc 	andi	r3,r3,255
    1798:	1805341e 	bne	r3,zero,2c6c <___vfprintf_internal_r+0x21f0>
    179c:	9080080c 	andi	r2,r18,32
    17a0:	1002cd26 	beq	r2,zero,22d8 <___vfprintf_internal_r+0x185c>
    17a4:	d9402d17 	ldw	r5,180(sp)
    17a8:	d9002f17 	ldw	r4,188(sp)
    17ac:	28800017 	ldw	r2,0(r5)
    17b0:	2007d7fa 	srai	r3,r4,31
    17b4:	29400104 	addi	r5,r5,4
    17b8:	d9402d15 	stw	r5,180(sp)
    17bc:	11000015 	stw	r4,0(r2)
    17c0:	10c00115 	stw	r3,4(r2)
    17c4:	003ce506 	br	b5c <__alt_mem_VGA_Subsystem_Char_Buf_Subsystem_Onchip_SRAM+0xf7000b5c>
    17c8:	d8c02d17 	ldw	r3,180(sp)
    17cc:	d9002d17 	ldw	r4,180(sp)
    17d0:	d8002785 	stb	zero,158(sp)
    17d4:	18800017 	ldw	r2,0(r3)
    17d8:	21000104 	addi	r4,r4,4
    17dc:	00c00044 	movi	r3,1
    17e0:	d8c02a15 	stw	r3,168(sp)
    17e4:	d8801405 	stb	r2,80(sp)
    17e8:	d9002d15 	stw	r4,180(sp)
    17ec:	d8c02e15 	stw	r3,184(sp)
    17f0:	d8002915 	stw	zero,164(sp)
    17f4:	d8003215 	stw	zero,200(sp)
    17f8:	dc001404 	addi	r16,sp,80
    17fc:	0039883a 	mov	fp,zero
    1800:	003e7206 	br	11cc <__alt_mem_VGA_Subsystem_Char_Buf_Subsystem_Onchip_SRAM+0xf70011cc>
    1804:	01000074 	movhi	r4,1
    1808:	2105d904 	addi	r4,r4,5988
    180c:	0039883a 	mov	fp,zero
    1810:	d9003915 	stw	r4,228(sp)
    1814:	04401e04 	movi	r17,120
    1818:	003f8206 	br	1624 <__alt_mem_VGA_Subsystem_Char_Buf_Subsystem_Onchip_SRAM+0xf7001624>
    181c:	18c03fcc 	andi	r3,r3,255
    1820:	1805061e 	bne	r3,zero,2c3c <___vfprintf_internal_r+0x21c0>
    1824:	883d9126 	beq	r17,zero,e6c <__alt_mem_VGA_Subsystem_Char_Buf_Subsystem_Onchip_SRAM+0xf7000e6c>
    1828:	00c00044 	movi	r3,1
    182c:	d8c02a15 	stw	r3,168(sp)
    1830:	dc401405 	stb	r17,80(sp)
    1834:	d8002785 	stb	zero,158(sp)
    1838:	003fec06 	br	17ec <__alt_mem_VGA_Subsystem_Char_Buf_Subsystem_Onchip_SRAM+0xf70017ec>
    183c:	01400074 	movhi	r5,1
    1840:	2945d904 	addi	r5,r5,5988
    1844:	d9403915 	stw	r5,228(sp)
    1848:	d8c02d15 	stw	r3,180(sp)
    184c:	1025883a 	mov	r18,r2
    1850:	04401e04 	movi	r17,120
    1854:	9d84b03a 	or	r2,r19,r22
    1858:	1000fc1e 	bne	r2,zero,1c4c <___vfprintf_internal_r+0x11d0>
    185c:	0039883a 	mov	fp,zero
    1860:	00800084 	movi	r2,2
    1864:	10803fcc 	andi	r2,r2,255
    1868:	00c00044 	movi	r3,1
    186c:	10c20f26 	beq	r2,r3,20ac <___vfprintf_internal_r+0x1630>
    1870:	00c00084 	movi	r3,2
    1874:	10fd6326 	beq	r2,r3,e04 <__alt_mem_VGA_Subsystem_Char_Buf_Subsystem_Onchip_SRAM+0xf7000e04>
    1878:	003e2d06 	br	1130 <__alt_mem_VGA_Subsystem_Char_Buf_Subsystem_Onchip_SRAM+0xf7001130>
    187c:	d8c02017 	ldw	r3,128(sp)
    1880:	003e9306 	br	12d0 <__alt_mem_VGA_Subsystem_Char_Buf_Subsystem_Onchip_SRAM+0xf70012d0>
    1884:	00801944 	movi	r2,101
    1888:	14407e0e 	bge	r2,r17,1a84 <___vfprintf_internal_r+0x1008>
    188c:	d9003617 	ldw	r4,216(sp)
    1890:	d9403817 	ldw	r5,224(sp)
    1894:	000d883a 	mov	r6,zero
    1898:	000f883a 	mov	r7,zero
    189c:	d8c03c15 	stw	r3,240(sp)
    18a0:	da003d15 	stw	r8,244(sp)
    18a4:	000bd880 	call	bd88 <__eqdf2>
    18a8:	d8c03c17 	ldw	r3,240(sp)
    18ac:	da003d17 	ldw	r8,244(sp)
    18b0:	1000f71e 	bne	r2,zero,1c90 <___vfprintf_internal_r+0x1214>
    18b4:	d8801f17 	ldw	r2,124(sp)
    18b8:	01000074 	movhi	r4,1
    18bc:	2105e004 	addi	r4,r4,6016
    18c0:	18c00044 	addi	r3,r3,1
    18c4:	10800044 	addi	r2,r2,1
    18c8:	41000015 	stw	r4,0(r8)
    18cc:	01000044 	movi	r4,1
    18d0:	41000115 	stw	r4,4(r8)
    18d4:	d8c02015 	stw	r3,128(sp)
    18d8:	d8801f15 	stw	r2,124(sp)
    18dc:	010001c4 	movi	r4,7
    18e0:	2082b816 	blt	r4,r2,23c4 <___vfprintf_internal_r+0x1948>
    18e4:	42000204 	addi	r8,r8,8
    18e8:	d8802617 	ldw	r2,152(sp)
    18ec:	d9403317 	ldw	r5,204(sp)
    18f0:	11400216 	blt	r2,r5,18fc <___vfprintf_internal_r+0xe80>
    18f4:	9080004c 	andi	r2,r18,1
    18f8:	103ed526 	beq	r2,zero,1450 <__alt_mem_VGA_Subsystem_Char_Buf_Subsystem_Onchip_SRAM+0xf7001450>
    18fc:	d8803717 	ldw	r2,220(sp)
    1900:	d9003417 	ldw	r4,208(sp)
    1904:	d9403717 	ldw	r5,220(sp)
    1908:	1887883a 	add	r3,r3,r2
    190c:	d8801f17 	ldw	r2,124(sp)
    1910:	41000015 	stw	r4,0(r8)
    1914:	41400115 	stw	r5,4(r8)
    1918:	10800044 	addi	r2,r2,1
    191c:	d8c02015 	stw	r3,128(sp)
    1920:	d8801f15 	stw	r2,124(sp)
    1924:	010001c4 	movi	r4,7
    1928:	20832916 	blt	r4,r2,25d0 <___vfprintf_internal_r+0x1b54>
    192c:	42000204 	addi	r8,r8,8
    1930:	d8803317 	ldw	r2,204(sp)
    1934:	143fffc4 	addi	r16,r2,-1
    1938:	043ec50e 	bge	zero,r16,1450 <__alt_mem_VGA_Subsystem_Char_Buf_Subsystem_Onchip_SRAM+0xf7001450>
    193c:	04400404 	movi	r17,16
    1940:	d8801f17 	ldw	r2,124(sp)
    1944:	8c00880e 	bge	r17,r16,1b68 <___vfprintf_internal_r+0x10ec>
    1948:	01400074 	movhi	r5,1
    194c:	2945e084 	addi	r5,r5,6018
    1950:	d9402b15 	stw	r5,172(sp)
    1954:	058001c4 	movi	r22,7
    1958:	dcc02c17 	ldw	r19,176(sp)
    195c:	00000306 	br	196c <___vfprintf_internal_r+0xef0>
    1960:	42000204 	addi	r8,r8,8
    1964:	843ffc04 	addi	r16,r16,-16
    1968:	8c00820e 	bge	r17,r16,1b74 <___vfprintf_internal_r+0x10f8>
    196c:	18c00404 	addi	r3,r3,16
    1970:	10800044 	addi	r2,r2,1
    1974:	45000015 	stw	r20,0(r8)
    1978:	44400115 	stw	r17,4(r8)
    197c:	d8c02015 	stw	r3,128(sp)
    1980:	d8801f15 	stw	r2,124(sp)
    1984:	b0bff60e 	bge	r22,r2,1960 <__alt_mem_VGA_Subsystem_Char_Buf_Subsystem_Onchip_SRAM+0xf7001960>
    1988:	d9801e04 	addi	r6,sp,120
    198c:	b80b883a 	mov	r5,r23
    1990:	9809883a 	mov	r4,r19
    1994:	00075940 	call	7594 <__sprint_r>
    1998:	103d3a1e 	bne	r2,zero,e84 <__alt_mem_VGA_Subsystem_Char_Buf_Subsystem_Onchip_SRAM+0xf7000e84>
    199c:	d8c02017 	ldw	r3,128(sp)
    19a0:	d8801f17 	ldw	r2,124(sp)
    19a4:	da000404 	addi	r8,sp,16
    19a8:	003fee06 	br	1964 <__alt_mem_VGA_Subsystem_Char_Buf_Subsystem_Onchip_SRAM+0xf7001964>
    19ac:	d9403117 	ldw	r5,196(sp)
    19b0:	d8802a17 	ldw	r2,168(sp)
    19b4:	28adc83a 	sub	r22,r5,r2
    19b8:	05be630e 	bge	zero,r22,1348 <__alt_mem_VGA_Subsystem_Char_Buf_Subsystem_Onchip_SRAM+0xf7001348>
    19bc:	07000404 	movi	fp,16
    19c0:	d8801f17 	ldw	r2,124(sp)
    19c4:	e5838f0e 	bge	fp,r22,2804 <___vfprintf_internal_r+0x1d88>
    19c8:	01400074 	movhi	r5,1
    19cc:	2945e084 	addi	r5,r5,6018
    19d0:	dc403015 	stw	r17,192(sp)
    19d4:	d9402b15 	stw	r5,172(sp)
    19d8:	b023883a 	mov	r17,r22
    19dc:	04c001c4 	movi	r19,7
    19e0:	a82d883a 	mov	r22,r21
    19e4:	902b883a 	mov	r21,r18
    19e8:	8025883a 	mov	r18,r16
    19ec:	dc002c17 	ldw	r16,176(sp)
    19f0:	00000306 	br	1a00 <___vfprintf_internal_r+0xf84>
    19f4:	8c7ffc04 	addi	r17,r17,-16
    19f8:	42000204 	addi	r8,r8,8
    19fc:	e440110e 	bge	fp,r17,1a44 <___vfprintf_internal_r+0xfc8>
    1a00:	18c00404 	addi	r3,r3,16
    1a04:	10800044 	addi	r2,r2,1
    1a08:	45000015 	stw	r20,0(r8)
    1a0c:	47000115 	stw	fp,4(r8)
    1a10:	d8c02015 	stw	r3,128(sp)
    1a14:	d8801f15 	stw	r2,124(sp)
    1a18:	98bff60e 	bge	r19,r2,19f4 <__alt_mem_VGA_Subsystem_Char_Buf_Subsystem_Onchip_SRAM+0xf70019f4>
    1a1c:	d9801e04 	addi	r6,sp,120
    1a20:	b80b883a 	mov	r5,r23
    1a24:	8009883a 	mov	r4,r16
    1a28:	00075940 	call	7594 <__sprint_r>
    1a2c:	103d151e 	bne	r2,zero,e84 <__alt_mem_VGA_Subsystem_Char_Buf_Subsystem_Onchip_SRAM+0xf7000e84>
    1a30:	8c7ffc04 	addi	r17,r17,-16
    1a34:	d8c02017 	ldw	r3,128(sp)
    1a38:	d8801f17 	ldw	r2,124(sp)
    1a3c:	da000404 	addi	r8,sp,16
    1a40:	e47fef16 	blt	fp,r17,1a00 <__alt_mem_VGA_Subsystem_Char_Buf_Subsystem_Onchip_SRAM+0xf7001a00>
    1a44:	9021883a 	mov	r16,r18
    1a48:	a825883a 	mov	r18,r21
    1a4c:	b02b883a 	mov	r21,r22
    1a50:	882d883a 	mov	r22,r17
    1a54:	dc403017 	ldw	r17,192(sp)
    1a58:	d9002b17 	ldw	r4,172(sp)
    1a5c:	1d87883a 	add	r3,r3,r22
    1a60:	10800044 	addi	r2,r2,1
    1a64:	41000015 	stw	r4,0(r8)
    1a68:	45800115 	stw	r22,4(r8)
    1a6c:	d8c02015 	stw	r3,128(sp)
    1a70:	d8801f15 	stw	r2,124(sp)
    1a74:	010001c4 	movi	r4,7
    1a78:	20818e16 	blt	r4,r2,20b4 <___vfprintf_internal_r+0x1638>
    1a7c:	42000204 	addi	r8,r8,8
    1a80:	003e3106 	br	1348 <__alt_mem_VGA_Subsystem_Char_Buf_Subsystem_Onchip_SRAM+0xf7001348>
    1a84:	d9403317 	ldw	r5,204(sp)
    1a88:	00800044 	movi	r2,1
    1a8c:	18c00044 	addi	r3,r3,1
    1a90:	1141530e 	bge	r2,r5,1fe0 <___vfprintf_internal_r+0x1564>
    1a94:	dc401f17 	ldw	r17,124(sp)
    1a98:	00800044 	movi	r2,1
    1a9c:	40800115 	stw	r2,4(r8)
    1aa0:	8c400044 	addi	r17,r17,1
    1aa4:	44000015 	stw	r16,0(r8)
    1aa8:	d8c02015 	stw	r3,128(sp)
    1aac:	dc401f15 	stw	r17,124(sp)
    1ab0:	008001c4 	movi	r2,7
    1ab4:	14416b16 	blt	r2,r17,2064 <___vfprintf_internal_r+0x15e8>
    1ab8:	42000204 	addi	r8,r8,8
    1abc:	d8803717 	ldw	r2,220(sp)
    1ac0:	d9003417 	ldw	r4,208(sp)
    1ac4:	8c400044 	addi	r17,r17,1
    1ac8:	10c7883a 	add	r3,r2,r3
    1acc:	40800115 	stw	r2,4(r8)
    1ad0:	41000015 	stw	r4,0(r8)
    1ad4:	d8c02015 	stw	r3,128(sp)
    1ad8:	dc401f15 	stw	r17,124(sp)
    1adc:	008001c4 	movi	r2,7
    1ae0:	14416916 	blt	r2,r17,2088 <___vfprintf_internal_r+0x160c>
    1ae4:	45800204 	addi	r22,r8,8
    1ae8:	d9003617 	ldw	r4,216(sp)
    1aec:	d9403817 	ldw	r5,224(sp)
    1af0:	000d883a 	mov	r6,zero
    1af4:	000f883a 	mov	r7,zero
    1af8:	d8c03c15 	stw	r3,240(sp)
    1afc:	000bd880 	call	bd88 <__eqdf2>
    1b00:	d8c03c17 	ldw	r3,240(sp)
    1b04:	1000bc26 	beq	r2,zero,1df8 <___vfprintf_internal_r+0x137c>
    1b08:	d9403317 	ldw	r5,204(sp)
    1b0c:	84000044 	addi	r16,r16,1
    1b10:	8c400044 	addi	r17,r17,1
    1b14:	28bfffc4 	addi	r2,r5,-1
    1b18:	1887883a 	add	r3,r3,r2
    1b1c:	b0800115 	stw	r2,4(r22)
    1b20:	b4000015 	stw	r16,0(r22)
    1b24:	d8c02015 	stw	r3,128(sp)
    1b28:	dc401f15 	stw	r17,124(sp)
    1b2c:	008001c4 	movi	r2,7
    1b30:	14414316 	blt	r2,r17,2040 <___vfprintf_internal_r+0x15c4>
    1b34:	b5800204 	addi	r22,r22,8
    1b38:	d9003a17 	ldw	r4,232(sp)
    1b3c:	df0022c4 	addi	fp,sp,139
    1b40:	8c400044 	addi	r17,r17,1
    1b44:	20c7883a 	add	r3,r4,r3
    1b48:	b7000015 	stw	fp,0(r22)
    1b4c:	b1000115 	stw	r4,4(r22)
    1b50:	d8c02015 	stw	r3,128(sp)
    1b54:	dc401f15 	stw	r17,124(sp)
    1b58:	008001c4 	movi	r2,7
    1b5c:	14400e16 	blt	r2,r17,1b98 <___vfprintf_internal_r+0x111c>
    1b60:	b2000204 	addi	r8,r22,8
    1b64:	003e3a06 	br	1450 <__alt_mem_VGA_Subsystem_Char_Buf_Subsystem_Onchip_SRAM+0xf7001450>
    1b68:	01000074 	movhi	r4,1
    1b6c:	2105e084 	addi	r4,r4,6018
    1b70:	d9002b15 	stw	r4,172(sp)
    1b74:	d9002b17 	ldw	r4,172(sp)
    1b78:	1c07883a 	add	r3,r3,r16
    1b7c:	44000115 	stw	r16,4(r8)
    1b80:	41000015 	stw	r4,0(r8)
    1b84:	10800044 	addi	r2,r2,1
    1b88:	d8c02015 	stw	r3,128(sp)
    1b8c:	d8801f15 	stw	r2,124(sp)
    1b90:	010001c4 	movi	r4,7
    1b94:	20be2d0e 	bge	r4,r2,144c <__alt_mem_VGA_Subsystem_Char_Buf_Subsystem_Onchip_SRAM+0xf700144c>
    1b98:	d9002c17 	ldw	r4,176(sp)
    1b9c:	d9801e04 	addi	r6,sp,120
    1ba0:	b80b883a 	mov	r5,r23
    1ba4:	00075940 	call	7594 <__sprint_r>
    1ba8:	103cb61e 	bne	r2,zero,e84 <__alt_mem_VGA_Subsystem_Char_Buf_Subsystem_Onchip_SRAM+0xf7000e84>
    1bac:	d8c02017 	ldw	r3,128(sp)
    1bb0:	da000404 	addi	r8,sp,16
    1bb4:	003e2606 	br	1450 <__alt_mem_VGA_Subsystem_Char_Buf_Subsystem_Onchip_SRAM+0xf7001450>
    1bb8:	d9002c17 	ldw	r4,176(sp)
    1bbc:	d9801e04 	addi	r6,sp,120
    1bc0:	b80b883a 	mov	r5,r23
    1bc4:	00075940 	call	7594 <__sprint_r>
    1bc8:	103e5d26 	beq	r2,zero,1540 <__alt_mem_VGA_Subsystem_Char_Buf_Subsystem_Onchip_SRAM+0xf7001540>
    1bcc:	003cad06 	br	e84 <__alt_mem_VGA_Subsystem_Char_Buf_Subsystem_Onchip_SRAM+0xf7000e84>
    1bd0:	d9002c17 	ldw	r4,176(sp)
    1bd4:	d9801e04 	addi	r6,sp,120
    1bd8:	b80b883a 	mov	r5,r23
    1bdc:	00075940 	call	7594 <__sprint_r>
    1be0:	103ca81e 	bne	r2,zero,e84 <__alt_mem_VGA_Subsystem_Char_Buf_Subsystem_Onchip_SRAM+0xf7000e84>
    1be4:	d8c02017 	ldw	r3,128(sp)
    1be8:	da000404 	addi	r8,sp,16
    1bec:	003e0b06 	br	141c <__alt_mem_VGA_Subsystem_Char_Buf_Subsystem_Onchip_SRAM+0xf700141c>
    1bf0:	d9002c17 	ldw	r4,176(sp)
    1bf4:	d9801e04 	addi	r6,sp,120
    1bf8:	b80b883a 	mov	r5,r23
    1bfc:	00075940 	call	7594 <__sprint_r>
    1c00:	103ca01e 	bne	r2,zero,e84 <__alt_mem_VGA_Subsystem_Char_Buf_Subsystem_Onchip_SRAM+0xf7000e84>
    1c04:	d8c02017 	ldw	r3,128(sp)
    1c08:	da000404 	addi	r8,sp,16
    1c0c:	003dbd06 	br	1304 <__alt_mem_VGA_Subsystem_Char_Buf_Subsystem_Onchip_SRAM+0xf7001304>
    1c10:	d9002c17 	ldw	r4,176(sp)
    1c14:	d9801e04 	addi	r6,sp,120
    1c18:	b80b883a 	mov	r5,r23
    1c1c:	00075940 	call	7594 <__sprint_r>
    1c20:	103c981e 	bne	r2,zero,e84 <__alt_mem_VGA_Subsystem_Char_Buf_Subsystem_Onchip_SRAM+0xf7000e84>
    1c24:	d8c02017 	ldw	r3,128(sp)
    1c28:	da000404 	addi	r8,sp,16
    1c2c:	003dc306 	br	133c <__alt_mem_VGA_Subsystem_Char_Buf_Subsystem_Onchip_SRAM+0xf700133c>
    1c30:	d8802917 	ldw	r2,164(sp)
    1c34:	d8002785 	stb	zero,158(sp)
    1c38:	103f0616 	blt	r2,zero,1854 <__alt_mem_VGA_Subsystem_Char_Buf_Subsystem_Onchip_SRAM+0xf7001854>
    1c3c:	00ffdfc4 	movi	r3,-129
    1c40:	9d84b03a 	or	r2,r19,r22
    1c44:	90e4703a 	and	r18,r18,r3
    1c48:	103c6b26 	beq	r2,zero,df8 <__alt_mem_VGA_Subsystem_Char_Buf_Subsystem_Onchip_SRAM+0xf7000df8>
    1c4c:	0039883a 	mov	fp,zero
    1c50:	003e7406 	br	1624 <__alt_mem_VGA_Subsystem_Char_Buf_Subsystem_Onchip_SRAM+0xf7001624>
    1c54:	9080040c 	andi	r2,r18,16
    1c58:	1001b326 	beq	r2,zero,2328 <___vfprintf_internal_r+0x18ac>
    1c5c:	d9002d17 	ldw	r4,180(sp)
    1c60:	d9402917 	ldw	r5,164(sp)
    1c64:	d8002785 	stb	zero,158(sp)
    1c68:	20800104 	addi	r2,r4,4
    1c6c:	24c00017 	ldw	r19,0(r4)
    1c70:	002d883a 	mov	r22,zero
    1c74:	2801b516 	blt	r5,zero,234c <___vfprintf_internal_r+0x18d0>
    1c78:	00ffdfc4 	movi	r3,-129
    1c7c:	d8802d15 	stw	r2,180(sp)
    1c80:	90e4703a 	and	r18,r18,r3
    1c84:	983d2726 	beq	r19,zero,1124 <__alt_mem_VGA_Subsystem_Char_Buf_Subsystem_Onchip_SRAM+0xf7001124>
    1c88:	0039883a 	mov	fp,zero
    1c8c:	003d2a06 	br	1138 <__alt_mem_VGA_Subsystem_Char_Buf_Subsystem_Onchip_SRAM+0xf7001138>
    1c90:	dc402617 	ldw	r17,152(sp)
    1c94:	0441d30e 	bge	zero,r17,23e4 <___vfprintf_internal_r+0x1968>
    1c98:	dc403217 	ldw	r17,200(sp)
    1c9c:	d8803317 	ldw	r2,204(sp)
    1ca0:	1440010e 	bge	r2,r17,1ca8 <___vfprintf_internal_r+0x122c>
    1ca4:	1023883a 	mov	r17,r2
    1ca8:	04400a0e 	bge	zero,r17,1cd4 <___vfprintf_internal_r+0x1258>
    1cac:	d8801f17 	ldw	r2,124(sp)
    1cb0:	1c47883a 	add	r3,r3,r17
    1cb4:	44000015 	stw	r16,0(r8)
    1cb8:	10800044 	addi	r2,r2,1
    1cbc:	44400115 	stw	r17,4(r8)
    1cc0:	d8c02015 	stw	r3,128(sp)
    1cc4:	d8801f15 	stw	r2,124(sp)
    1cc8:	010001c4 	movi	r4,7
    1ccc:	20826516 	blt	r4,r2,2664 <___vfprintf_internal_r+0x1be8>
    1cd0:	42000204 	addi	r8,r8,8
    1cd4:	88026116 	blt	r17,zero,265c <___vfprintf_internal_r+0x1be0>
    1cd8:	d9003217 	ldw	r4,200(sp)
    1cdc:	2463c83a 	sub	r17,r4,r17
    1ce0:	04407b0e 	bge	zero,r17,1ed0 <___vfprintf_internal_r+0x1454>
    1ce4:	05800404 	movi	r22,16
    1ce8:	d8801f17 	ldw	r2,124(sp)
    1cec:	b4419d0e 	bge	r22,r17,2364 <___vfprintf_internal_r+0x18e8>
    1cf0:	01000074 	movhi	r4,1
    1cf4:	2105e084 	addi	r4,r4,6018
    1cf8:	d9002b15 	stw	r4,172(sp)
    1cfc:	070001c4 	movi	fp,7
    1d00:	dcc02c17 	ldw	r19,176(sp)
    1d04:	00000306 	br	1d14 <___vfprintf_internal_r+0x1298>
    1d08:	42000204 	addi	r8,r8,8
    1d0c:	8c7ffc04 	addi	r17,r17,-16
    1d10:	b441970e 	bge	r22,r17,2370 <___vfprintf_internal_r+0x18f4>
    1d14:	18c00404 	addi	r3,r3,16
    1d18:	10800044 	addi	r2,r2,1
    1d1c:	45000015 	stw	r20,0(r8)
    1d20:	45800115 	stw	r22,4(r8)
    1d24:	d8c02015 	stw	r3,128(sp)
    1d28:	d8801f15 	stw	r2,124(sp)
    1d2c:	e0bff60e 	bge	fp,r2,1d08 <__alt_mem_VGA_Subsystem_Char_Buf_Subsystem_Onchip_SRAM+0xf7001d08>
    1d30:	d9801e04 	addi	r6,sp,120
    1d34:	b80b883a 	mov	r5,r23
    1d38:	9809883a 	mov	r4,r19
    1d3c:	00075940 	call	7594 <__sprint_r>
    1d40:	103c501e 	bne	r2,zero,e84 <__alt_mem_VGA_Subsystem_Char_Buf_Subsystem_Onchip_SRAM+0xf7000e84>
    1d44:	d8c02017 	ldw	r3,128(sp)
    1d48:	d8801f17 	ldw	r2,124(sp)
    1d4c:	da000404 	addi	r8,sp,16
    1d50:	003fee06 	br	1d0c <__alt_mem_VGA_Subsystem_Char_Buf_Subsystem_Onchip_SRAM+0xf7001d0c>
    1d54:	d9002c17 	ldw	r4,176(sp)
    1d58:	d9801e04 	addi	r6,sp,120
    1d5c:	b80b883a 	mov	r5,r23
    1d60:	00075940 	call	7594 <__sprint_r>
    1d64:	103c471e 	bne	r2,zero,e84 <__alt_mem_VGA_Subsystem_Char_Buf_Subsystem_Onchip_SRAM+0xf7000e84>
    1d68:	d8c02017 	ldw	r3,128(sp)
    1d6c:	df002787 	ldb	fp,158(sp)
    1d70:	da000404 	addi	r8,sp,16
    1d74:	003d5606 	br	12d0 <__alt_mem_VGA_Subsystem_Char_Buf_Subsystem_Onchip_SRAM+0xf70012d0>
    1d78:	9080040c 	andi	r2,r18,16
    1d7c:	10016126 	beq	r2,zero,2304 <___vfprintf_internal_r+0x1888>
    1d80:	d8802d17 	ldw	r2,180(sp)
    1d84:	14c00017 	ldw	r19,0(r2)
    1d88:	10800104 	addi	r2,r2,4
    1d8c:	d8802d15 	stw	r2,180(sp)
    1d90:	982dd7fa 	srai	r22,r19,31
    1d94:	b005883a 	mov	r2,r22
    1d98:	003c8206 	br	fa4 <__alt_mem_VGA_Subsystem_Char_Buf_Subsystem_Onchip_SRAM+0xf7000fa4>
    1d9c:	9080040c 	andi	r2,r18,16
    1da0:	10003526 	beq	r2,zero,1e78 <___vfprintf_internal_r+0x13fc>
    1da4:	d9402d17 	ldw	r5,180(sp)
    1da8:	d8c02917 	ldw	r3,164(sp)
    1dac:	d8002785 	stb	zero,158(sp)
    1db0:	28800104 	addi	r2,r5,4
    1db4:	2cc00017 	ldw	r19,0(r5)
    1db8:	002d883a 	mov	r22,zero
    1dbc:	18003716 	blt	r3,zero,1e9c <___vfprintf_internal_r+0x1420>
    1dc0:	00ffdfc4 	movi	r3,-129
    1dc4:	d8802d15 	stw	r2,180(sp)
    1dc8:	90e4703a 	and	r18,r18,r3
    1dcc:	0039883a 	mov	fp,zero
    1dd0:	983df326 	beq	r19,zero,15a0 <__alt_mem_VGA_Subsystem_Char_Buf_Subsystem_Onchip_SRAM+0xf70015a0>
    1dd4:	00800244 	movi	r2,9
    1dd8:	14fc7b36 	bltu	r2,r19,fc8 <__alt_mem_VGA_Subsystem_Char_Buf_Subsystem_Onchip_SRAM+0xf7000fc8>
    1ddc:	d8c02817 	ldw	r3,160(sp)
    1de0:	dc001dc4 	addi	r16,sp,119
    1de4:	9cc00c04 	addi	r19,r19,48
    1de8:	1c07c83a 	sub	r3,r3,r16
    1dec:	dcc01dc5 	stb	r19,119(sp)
    1df0:	d8c02e15 	stw	r3,184(sp)
    1df4:	003ce806 	br	1198 <__alt_mem_VGA_Subsystem_Char_Buf_Subsystem_Onchip_SRAM+0xf7001198>
    1df8:	d8803317 	ldw	r2,204(sp)
    1dfc:	143fffc4 	addi	r16,r2,-1
    1e00:	043f4d0e 	bge	zero,r16,1b38 <__alt_mem_VGA_Subsystem_Char_Buf_Subsystem_Onchip_SRAM+0xf7001b38>
    1e04:	07000404 	movi	fp,16
    1e08:	e400810e 	bge	fp,r16,2010 <___vfprintf_internal_r+0x1594>
    1e0c:	01400074 	movhi	r5,1
    1e10:	2945e084 	addi	r5,r5,6018
    1e14:	d9402b15 	stw	r5,172(sp)
    1e18:	01c001c4 	movi	r7,7
    1e1c:	dcc02c17 	ldw	r19,176(sp)
    1e20:	00000306 	br	1e30 <___vfprintf_internal_r+0x13b4>
    1e24:	b5800204 	addi	r22,r22,8
    1e28:	843ffc04 	addi	r16,r16,-16
    1e2c:	e4007b0e 	bge	fp,r16,201c <___vfprintf_internal_r+0x15a0>
    1e30:	18c00404 	addi	r3,r3,16
    1e34:	8c400044 	addi	r17,r17,1
    1e38:	b5000015 	stw	r20,0(r22)
    1e3c:	b7000115 	stw	fp,4(r22)
    1e40:	d8c02015 	stw	r3,128(sp)
    1e44:	dc401f15 	stw	r17,124(sp)
    1e48:	3c7ff60e 	bge	r7,r17,1e24 <__alt_mem_VGA_Subsystem_Char_Buf_Subsystem_Onchip_SRAM+0xf7001e24>
    1e4c:	d9801e04 	addi	r6,sp,120
    1e50:	b80b883a 	mov	r5,r23
    1e54:	9809883a 	mov	r4,r19
    1e58:	d9c03c15 	stw	r7,240(sp)
    1e5c:	00075940 	call	7594 <__sprint_r>
    1e60:	d9c03c17 	ldw	r7,240(sp)
    1e64:	103c071e 	bne	r2,zero,e84 <__alt_mem_VGA_Subsystem_Char_Buf_Subsystem_Onchip_SRAM+0xf7000e84>
    1e68:	d8c02017 	ldw	r3,128(sp)
    1e6c:	dc401f17 	ldw	r17,124(sp)
    1e70:	dd800404 	addi	r22,sp,16
    1e74:	003fec06 	br	1e28 <__alt_mem_VGA_Subsystem_Char_Buf_Subsystem_Onchip_SRAM+0xf7001e28>
    1e78:	9080100c 	andi	r2,r18,64
    1e7c:	d8002785 	stb	zero,158(sp)
    1e80:	10010e26 	beq	r2,zero,22bc <___vfprintf_internal_r+0x1840>
    1e84:	d9002d17 	ldw	r4,180(sp)
    1e88:	d9402917 	ldw	r5,164(sp)
    1e8c:	002d883a 	mov	r22,zero
    1e90:	20800104 	addi	r2,r4,4
    1e94:	24c0000b 	ldhu	r19,0(r4)
    1e98:	283fc90e 	bge	r5,zero,1dc0 <__alt_mem_VGA_Subsystem_Char_Buf_Subsystem_Onchip_SRAM+0xf7001dc0>
    1e9c:	d8802d15 	stw	r2,180(sp)
    1ea0:	0039883a 	mov	fp,zero
    1ea4:	9d84b03a 	or	r2,r19,r22
    1ea8:	103c461e 	bne	r2,zero,fc4 <__alt_mem_VGA_Subsystem_Char_Buf_Subsystem_Onchip_SRAM+0xf7000fc4>
    1eac:	00800044 	movi	r2,1
    1eb0:	003e6c06 	br	1864 <__alt_mem_VGA_Subsystem_Char_Buf_Subsystem_Onchip_SRAM+0xf7001864>
    1eb4:	d9002c17 	ldw	r4,176(sp)
    1eb8:	d9801e04 	addi	r6,sp,120
    1ebc:	b80b883a 	mov	r5,r23
    1ec0:	00075940 	call	7594 <__sprint_r>
    1ec4:	103bef1e 	bne	r2,zero,e84 <__alt_mem_VGA_Subsystem_Char_Buf_Subsystem_Onchip_SRAM+0xf7000e84>
    1ec8:	d8c02017 	ldw	r3,128(sp)
    1ecc:	da000404 	addi	r8,sp,16
    1ed0:	d9003217 	ldw	r4,200(sp)
    1ed4:	d8802617 	ldw	r2,152(sp)
    1ed8:	d9403317 	ldw	r5,204(sp)
    1edc:	8123883a 	add	r17,r16,r4
    1ee0:	11400216 	blt	r2,r5,1eec <___vfprintf_internal_r+0x1470>
    1ee4:	9100004c 	andi	r4,r18,1
    1ee8:	20000d26 	beq	r4,zero,1f20 <___vfprintf_internal_r+0x14a4>
    1eec:	d9003717 	ldw	r4,220(sp)
    1ef0:	d9403417 	ldw	r5,208(sp)
    1ef4:	1907883a 	add	r3,r3,r4
    1ef8:	d9001f17 	ldw	r4,124(sp)
    1efc:	41400015 	stw	r5,0(r8)
    1f00:	d9403717 	ldw	r5,220(sp)
    1f04:	21000044 	addi	r4,r4,1
    1f08:	d8c02015 	stw	r3,128(sp)
    1f0c:	41400115 	stw	r5,4(r8)
    1f10:	d9001f15 	stw	r4,124(sp)
    1f14:	014001c4 	movi	r5,7
    1f18:	2901e816 	blt	r5,r4,26bc <___vfprintf_internal_r+0x1c40>
    1f1c:	42000204 	addi	r8,r8,8
    1f20:	d9003317 	ldw	r4,204(sp)
    1f24:	8121883a 	add	r16,r16,r4
    1f28:	2085c83a 	sub	r2,r4,r2
    1f2c:	8461c83a 	sub	r16,r16,r17
    1f30:	1400010e 	bge	r2,r16,1f38 <___vfprintf_internal_r+0x14bc>
    1f34:	1021883a 	mov	r16,r2
    1f38:	04000a0e 	bge	zero,r16,1f64 <___vfprintf_internal_r+0x14e8>
    1f3c:	d9001f17 	ldw	r4,124(sp)
    1f40:	1c07883a 	add	r3,r3,r16
    1f44:	44400015 	stw	r17,0(r8)
    1f48:	21000044 	addi	r4,r4,1
    1f4c:	44000115 	stw	r16,4(r8)
    1f50:	d8c02015 	stw	r3,128(sp)
    1f54:	d9001f15 	stw	r4,124(sp)
    1f58:	014001c4 	movi	r5,7
    1f5c:	2901fb16 	blt	r5,r4,274c <___vfprintf_internal_r+0x1cd0>
    1f60:	42000204 	addi	r8,r8,8
    1f64:	8001f716 	blt	r16,zero,2744 <___vfprintf_internal_r+0x1cc8>
    1f68:	1421c83a 	sub	r16,r2,r16
    1f6c:	043d380e 	bge	zero,r16,1450 <__alt_mem_VGA_Subsystem_Char_Buf_Subsystem_Onchip_SRAM+0xf7001450>
    1f70:	04400404 	movi	r17,16
    1f74:	d8801f17 	ldw	r2,124(sp)
    1f78:	8c3efb0e 	bge	r17,r16,1b68 <__alt_mem_VGA_Subsystem_Char_Buf_Subsystem_Onchip_SRAM+0xf7001b68>
    1f7c:	01400074 	movhi	r5,1
    1f80:	2945e084 	addi	r5,r5,6018
    1f84:	d9402b15 	stw	r5,172(sp)
    1f88:	058001c4 	movi	r22,7
    1f8c:	dcc02c17 	ldw	r19,176(sp)
    1f90:	00000306 	br	1fa0 <___vfprintf_internal_r+0x1524>
    1f94:	42000204 	addi	r8,r8,8
    1f98:	843ffc04 	addi	r16,r16,-16
    1f9c:	8c3ef50e 	bge	r17,r16,1b74 <__alt_mem_VGA_Subsystem_Char_Buf_Subsystem_Onchip_SRAM+0xf7001b74>
    1fa0:	18c00404 	addi	r3,r3,16
    1fa4:	10800044 	addi	r2,r2,1
    1fa8:	45000015 	stw	r20,0(r8)
    1fac:	44400115 	stw	r17,4(r8)
    1fb0:	d8c02015 	stw	r3,128(sp)
    1fb4:	d8801f15 	stw	r2,124(sp)
    1fb8:	b0bff60e 	bge	r22,r2,1f94 <__alt_mem_VGA_Subsystem_Char_Buf_Subsystem_Onchip_SRAM+0xf7001f94>
    1fbc:	d9801e04 	addi	r6,sp,120
    1fc0:	b80b883a 	mov	r5,r23
    1fc4:	9809883a 	mov	r4,r19
    1fc8:	00075940 	call	7594 <__sprint_r>
    1fcc:	103bad1e 	bne	r2,zero,e84 <__alt_mem_VGA_Subsystem_Char_Buf_Subsystem_Onchip_SRAM+0xf7000e84>
    1fd0:	d8c02017 	ldw	r3,128(sp)
    1fd4:	d8801f17 	ldw	r2,124(sp)
    1fd8:	da000404 	addi	r8,sp,16
    1fdc:	003fee06 	br	1f98 <__alt_mem_VGA_Subsystem_Char_Buf_Subsystem_Onchip_SRAM+0xf7001f98>
    1fe0:	9088703a 	and	r4,r18,r2
    1fe4:	203eab1e 	bne	r4,zero,1a94 <__alt_mem_VGA_Subsystem_Char_Buf_Subsystem_Onchip_SRAM+0xf7001a94>
    1fe8:	dc401f17 	ldw	r17,124(sp)
    1fec:	40800115 	stw	r2,4(r8)
    1ff0:	44000015 	stw	r16,0(r8)
    1ff4:	8c400044 	addi	r17,r17,1
    1ff8:	d8c02015 	stw	r3,128(sp)
    1ffc:	dc401f15 	stw	r17,124(sp)
    2000:	008001c4 	movi	r2,7
    2004:	14400e16 	blt	r2,r17,2040 <___vfprintf_internal_r+0x15c4>
    2008:	45800204 	addi	r22,r8,8
    200c:	003eca06 	br	1b38 <__alt_mem_VGA_Subsystem_Char_Buf_Subsystem_Onchip_SRAM+0xf7001b38>
    2010:	01000074 	movhi	r4,1
    2014:	2105e084 	addi	r4,r4,6018
    2018:	d9002b15 	stw	r4,172(sp)
    201c:	d8802b17 	ldw	r2,172(sp)
    2020:	1c07883a 	add	r3,r3,r16
    2024:	8c400044 	addi	r17,r17,1
    2028:	b0800015 	stw	r2,0(r22)
    202c:	b4000115 	stw	r16,4(r22)
    2030:	d8c02015 	stw	r3,128(sp)
    2034:	dc401f15 	stw	r17,124(sp)
    2038:	008001c4 	movi	r2,7
    203c:	147ebd0e 	bge	r2,r17,1b34 <__alt_mem_VGA_Subsystem_Char_Buf_Subsystem_Onchip_SRAM+0xf7001b34>
    2040:	d9002c17 	ldw	r4,176(sp)
    2044:	d9801e04 	addi	r6,sp,120
    2048:	b80b883a 	mov	r5,r23
    204c:	00075940 	call	7594 <__sprint_r>
    2050:	103b8c1e 	bne	r2,zero,e84 <__alt_mem_VGA_Subsystem_Char_Buf_Subsystem_Onchip_SRAM+0xf7000e84>
    2054:	d8c02017 	ldw	r3,128(sp)
    2058:	dc401f17 	ldw	r17,124(sp)
    205c:	dd800404 	addi	r22,sp,16
    2060:	003eb506 	br	1b38 <__alt_mem_VGA_Subsystem_Char_Buf_Subsystem_Onchip_SRAM+0xf7001b38>
    2064:	d9002c17 	ldw	r4,176(sp)
    2068:	d9801e04 	addi	r6,sp,120
    206c:	b80b883a 	mov	r5,r23
    2070:	00075940 	call	7594 <__sprint_r>
    2074:	103b831e 	bne	r2,zero,e84 <__alt_mem_VGA_Subsystem_Char_Buf_Subsystem_Onchip_SRAM+0xf7000e84>
    2078:	d8c02017 	ldw	r3,128(sp)
    207c:	dc401f17 	ldw	r17,124(sp)
    2080:	da000404 	addi	r8,sp,16
    2084:	003e8d06 	br	1abc <__alt_mem_VGA_Subsystem_Char_Buf_Subsystem_Onchip_SRAM+0xf7001abc>
    2088:	d9002c17 	ldw	r4,176(sp)
    208c:	d9801e04 	addi	r6,sp,120
    2090:	b80b883a 	mov	r5,r23
    2094:	00075940 	call	7594 <__sprint_r>
    2098:	103b7a1e 	bne	r2,zero,e84 <__alt_mem_VGA_Subsystem_Char_Buf_Subsystem_Onchip_SRAM+0xf7000e84>
    209c:	d8c02017 	ldw	r3,128(sp)
    20a0:	dc401f17 	ldw	r17,124(sp)
    20a4:	dd800404 	addi	r22,sp,16
    20a8:	003e8f06 	br	1ae8 <__alt_mem_VGA_Subsystem_Char_Buf_Subsystem_Onchip_SRAM+0xf7001ae8>
    20ac:	0027883a 	mov	r19,zero
    20b0:	003f4a06 	br	1ddc <__alt_mem_VGA_Subsystem_Char_Buf_Subsystem_Onchip_SRAM+0xf7001ddc>
    20b4:	d9002c17 	ldw	r4,176(sp)
    20b8:	d9801e04 	addi	r6,sp,120
    20bc:	b80b883a 	mov	r5,r23
    20c0:	00075940 	call	7594 <__sprint_r>
    20c4:	103b6f1e 	bne	r2,zero,e84 <__alt_mem_VGA_Subsystem_Char_Buf_Subsystem_Onchip_SRAM+0xf7000e84>
    20c8:	d8c02017 	ldw	r3,128(sp)
    20cc:	da000404 	addi	r8,sp,16
    20d0:	003c9d06 	br	1348 <__alt_mem_VGA_Subsystem_Char_Buf_Subsystem_Onchip_SRAM+0xf7001348>
    20d4:	04e7c83a 	sub	r19,zero,r19
    20d8:	9804c03a 	cmpne	r2,r19,zero
    20dc:	05adc83a 	sub	r22,zero,r22
    20e0:	b0adc83a 	sub	r22,r22,r2
    20e4:	d8802917 	ldw	r2,164(sp)
    20e8:	07000b44 	movi	fp,45
    20ec:	df002785 	stb	fp,158(sp)
    20f0:	10017b16 	blt	r2,zero,26e0 <___vfprintf_internal_r+0x1c64>
    20f4:	00bfdfc4 	movi	r2,-129
    20f8:	90a4703a 	and	r18,r18,r2
    20fc:	003bb106 	br	fc4 <__alt_mem_VGA_Subsystem_Char_Buf_Subsystem_Onchip_SRAM+0xf7000fc4>
    2100:	d9003617 	ldw	r4,216(sp)
    2104:	d9403817 	ldw	r5,224(sp)
    2108:	da003d15 	stw	r8,244(sp)
    210c:	00071200 	call	7120 <__fpclassifyd>
    2110:	da003d17 	ldw	r8,244(sp)
    2114:	1000f026 	beq	r2,zero,24d8 <___vfprintf_internal_r+0x1a5c>
    2118:	d9002917 	ldw	r4,164(sp)
    211c:	05bff7c4 	movi	r22,-33
    2120:	00bfffc4 	movi	r2,-1
    2124:	8dac703a 	and	r22,r17,r22
    2128:	20820026 	beq	r4,r2,292c <___vfprintf_internal_r+0x1eb0>
    212c:	008011c4 	movi	r2,71
    2130:	b081f726 	beq	r22,r2,2910 <___vfprintf_internal_r+0x1e94>
    2134:	d9003817 	ldw	r4,224(sp)
    2138:	90c04014 	ori	r3,r18,256
    213c:	d8c02b15 	stw	r3,172(sp)
    2140:	20021516 	blt	r4,zero,2998 <___vfprintf_internal_r+0x1f1c>
    2144:	dcc03817 	ldw	r19,224(sp)
    2148:	d8002a05 	stb	zero,168(sp)
    214c:	00801984 	movi	r2,102
    2150:	8881f926 	beq	r17,r2,2938 <___vfprintf_internal_r+0x1ebc>
    2154:	00801184 	movi	r2,70
    2158:	88821c26 	beq	r17,r2,29cc <___vfprintf_internal_r+0x1f50>
    215c:	00801144 	movi	r2,69
    2160:	b081ef26 	beq	r22,r2,2920 <___vfprintf_internal_r+0x1ea4>
    2164:	d8c02917 	ldw	r3,164(sp)
    2168:	d8802104 	addi	r2,sp,132
    216c:	d8800315 	stw	r2,12(sp)
    2170:	d9403617 	ldw	r5,216(sp)
    2174:	d8802504 	addi	r2,sp,148
    2178:	d9002c17 	ldw	r4,176(sp)
    217c:	d8800215 	stw	r2,8(sp)
    2180:	d8802604 	addi	r2,sp,152
    2184:	d8c00015 	stw	r3,0(sp)
    2188:	d8800115 	stw	r2,4(sp)
    218c:	01c00084 	movi	r7,2
    2190:	980d883a 	mov	r6,r19
    2194:	d8c03c15 	stw	r3,240(sp)
    2198:	da003d15 	stw	r8,244(sp)
    219c:	00030a00 	call	30a0 <_dtoa_r>
    21a0:	1021883a 	mov	r16,r2
    21a4:	008019c4 	movi	r2,103
    21a8:	d8c03c17 	ldw	r3,240(sp)
    21ac:	da003d17 	ldw	r8,244(sp)
    21b0:	88817126 	beq	r17,r2,2778 <___vfprintf_internal_r+0x1cfc>
    21b4:	008011c4 	movi	r2,71
    21b8:	88829226 	beq	r17,r2,2c04 <___vfprintf_internal_r+0x2188>
    21bc:	80f9883a 	add	fp,r16,r3
    21c0:	d9003617 	ldw	r4,216(sp)
    21c4:	000d883a 	mov	r6,zero
    21c8:	000f883a 	mov	r7,zero
    21cc:	980b883a 	mov	r5,r19
    21d0:	da003d15 	stw	r8,244(sp)
    21d4:	000bd880 	call	bd88 <__eqdf2>
    21d8:	da003d17 	ldw	r8,244(sp)
    21dc:	10018d26 	beq	r2,zero,2814 <___vfprintf_internal_r+0x1d98>
    21e0:	d8802117 	ldw	r2,132(sp)
    21e4:	1700062e 	bgeu	r2,fp,2200 <___vfprintf_internal_r+0x1784>
    21e8:	01000c04 	movi	r4,48
    21ec:	10c00044 	addi	r3,r2,1
    21f0:	d8c02115 	stw	r3,132(sp)
    21f4:	11000005 	stb	r4,0(r2)
    21f8:	d8802117 	ldw	r2,132(sp)
    21fc:	173ffb36 	bltu	r2,fp,21ec <__alt_mem_VGA_Subsystem_Char_Buf_Subsystem_Onchip_SRAM+0xf70021ec>
    2200:	1405c83a 	sub	r2,r2,r16
    2204:	d8803315 	stw	r2,204(sp)
    2208:	008011c4 	movi	r2,71
    220c:	b0817626 	beq	r22,r2,27e8 <___vfprintf_internal_r+0x1d6c>
    2210:	00801944 	movi	r2,101
    2214:	1442810e 	bge	r2,r17,2c1c <___vfprintf_internal_r+0x21a0>
    2218:	d8c02617 	ldw	r3,152(sp)
    221c:	00801984 	movi	r2,102
    2220:	d8c03215 	stw	r3,200(sp)
    2224:	8881fe26 	beq	r17,r2,2a20 <___vfprintf_internal_r+0x1fa4>
    2228:	d8c03217 	ldw	r3,200(sp)
    222c:	d9003317 	ldw	r4,204(sp)
    2230:	1901dd16 	blt	r3,r4,29a8 <___vfprintf_internal_r+0x1f2c>
    2234:	9480004c 	andi	r18,r18,1
    2238:	90022b1e 	bne	r18,zero,2ae8 <___vfprintf_internal_r+0x206c>
    223c:	1805883a 	mov	r2,r3
    2240:	18028016 	blt	r3,zero,2c44 <___vfprintf_internal_r+0x21c8>
    2244:	d8c03217 	ldw	r3,200(sp)
    2248:	044019c4 	movi	r17,103
    224c:	d8c02e15 	stw	r3,184(sp)
    2250:	df002a07 	ldb	fp,168(sp)
    2254:	e001531e 	bne	fp,zero,27a4 <___vfprintf_internal_r+0x1d28>
    2258:	df002783 	ldbu	fp,158(sp)
    225c:	d8802a15 	stw	r2,168(sp)
    2260:	dc802b17 	ldw	r18,172(sp)
    2264:	d8002915 	stw	zero,164(sp)
    2268:	003bd106 	br	11b0 <__alt_mem_VGA_Subsystem_Char_Buf_Subsystem_Onchip_SRAM+0xf70011b0>
    226c:	d8802d17 	ldw	r2,180(sp)
    2270:	d8c02d17 	ldw	r3,180(sp)
    2274:	d9002d17 	ldw	r4,180(sp)
    2278:	10800017 	ldw	r2,0(r2)
    227c:	18c00117 	ldw	r3,4(r3)
    2280:	21000204 	addi	r4,r4,8
    2284:	d8803615 	stw	r2,216(sp)
    2288:	d8c03815 	stw	r3,224(sp)
    228c:	d9002d15 	stw	r4,180(sp)
    2290:	003b7506 	br	1068 <__alt_mem_VGA_Subsystem_Char_Buf_Subsystem_Onchip_SRAM+0xf7001068>
    2294:	ac400007 	ldb	r17,0(r21)
    2298:	003a5906 	br	c00 <__alt_mem_VGA_Subsystem_Char_Buf_Subsystem_Onchip_SRAM+0xf7000c00>
    229c:	9080100c 	andi	r2,r18,64
    22a0:	1000a826 	beq	r2,zero,2544 <___vfprintf_internal_r+0x1ac8>
    22a4:	d9002d17 	ldw	r4,180(sp)
    22a8:	002d883a 	mov	r22,zero
    22ac:	24c0000b 	ldhu	r19,0(r4)
    22b0:	21000104 	addi	r4,r4,4
    22b4:	d9002d15 	stw	r4,180(sp)
    22b8:	003ccb06 	br	15e8 <__alt_mem_VGA_Subsystem_Char_Buf_Subsystem_Onchip_SRAM+0xf70015e8>
    22bc:	d8c02d17 	ldw	r3,180(sp)
    22c0:	d9002917 	ldw	r4,164(sp)
    22c4:	002d883a 	mov	r22,zero
    22c8:	18800104 	addi	r2,r3,4
    22cc:	1cc00017 	ldw	r19,0(r3)
    22d0:	203ebb0e 	bge	r4,zero,1dc0 <__alt_mem_VGA_Subsystem_Char_Buf_Subsystem_Onchip_SRAM+0xf7001dc0>
    22d4:	003ef106 	br	1e9c <__alt_mem_VGA_Subsystem_Char_Buf_Subsystem_Onchip_SRAM+0xf7001e9c>
    22d8:	9080040c 	andi	r2,r18,16
    22dc:	1000921e 	bne	r2,zero,2528 <___vfprintf_internal_r+0x1aac>
    22e0:	9480100c 	andi	r18,r18,64
    22e4:	90013926 	beq	r18,zero,27cc <___vfprintf_internal_r+0x1d50>
    22e8:	d9002d17 	ldw	r4,180(sp)
    22ec:	d9402f17 	ldw	r5,188(sp)
    22f0:	20800017 	ldw	r2,0(r4)
    22f4:	21000104 	addi	r4,r4,4
    22f8:	d9002d15 	stw	r4,180(sp)
    22fc:	1140000d 	sth	r5,0(r2)
    2300:	003a1606 	br	b5c <__alt_mem_VGA_Subsystem_Char_Buf_Subsystem_Onchip_SRAM+0xf7000b5c>
    2304:	9080100c 	andi	r2,r18,64
    2308:	10008026 	beq	r2,zero,250c <___vfprintf_internal_r+0x1a90>
    230c:	d8c02d17 	ldw	r3,180(sp)
    2310:	1cc0000f 	ldh	r19,0(r3)
    2314:	18c00104 	addi	r3,r3,4
    2318:	d8c02d15 	stw	r3,180(sp)
    231c:	982dd7fa 	srai	r22,r19,31
    2320:	b005883a 	mov	r2,r22
    2324:	003b1f06 	br	fa4 <__alt_mem_VGA_Subsystem_Char_Buf_Subsystem_Onchip_SRAM+0xf7000fa4>
    2328:	9080100c 	andi	r2,r18,64
    232c:	d8002785 	stb	zero,158(sp)
    2330:	10008a1e 	bne	r2,zero,255c <___vfprintf_internal_r+0x1ae0>
    2334:	d9402d17 	ldw	r5,180(sp)
    2338:	d8c02917 	ldw	r3,164(sp)
    233c:	002d883a 	mov	r22,zero
    2340:	28800104 	addi	r2,r5,4
    2344:	2cc00017 	ldw	r19,0(r5)
    2348:	183e4b0e 	bge	r3,zero,1c78 <__alt_mem_VGA_Subsystem_Char_Buf_Subsystem_Onchip_SRAM+0xf7001c78>
    234c:	9d86b03a 	or	r3,r19,r22
    2350:	d8802d15 	stw	r2,180(sp)
    2354:	183e4c1e 	bne	r3,zero,1c88 <__alt_mem_VGA_Subsystem_Char_Buf_Subsystem_Onchip_SRAM+0xf7001c88>
    2358:	0039883a 	mov	fp,zero
    235c:	0005883a 	mov	r2,zero
    2360:	003d4006 	br	1864 <__alt_mem_VGA_Subsystem_Char_Buf_Subsystem_Onchip_SRAM+0xf7001864>
    2364:	01400074 	movhi	r5,1
    2368:	2945e084 	addi	r5,r5,6018
    236c:	d9402b15 	stw	r5,172(sp)
    2370:	d9402b17 	ldw	r5,172(sp)
    2374:	1c47883a 	add	r3,r3,r17
    2378:	10800044 	addi	r2,r2,1
    237c:	41400015 	stw	r5,0(r8)
    2380:	44400115 	stw	r17,4(r8)
    2384:	d8c02015 	stw	r3,128(sp)
    2388:	d8801f15 	stw	r2,124(sp)
    238c:	010001c4 	movi	r4,7
    2390:	20bec816 	blt	r4,r2,1eb4 <__alt_mem_VGA_Subsystem_Char_Buf_Subsystem_Onchip_SRAM+0xf7001eb4>
    2394:	42000204 	addi	r8,r8,8
    2398:	003ecd06 	br	1ed0 <__alt_mem_VGA_Subsystem_Char_Buf_Subsystem_Onchip_SRAM+0xf7001ed0>
    239c:	d9002917 	ldw	r4,164(sp)
    23a0:	d8002785 	stb	zero,158(sp)
    23a4:	203d2d16 	blt	r4,zero,185c <__alt_mem_VGA_Subsystem_Char_Buf_Subsystem_Onchip_SRAM+0xf700185c>
    23a8:	00bfdfc4 	movi	r2,-129
    23ac:	90a4703a 	and	r18,r18,r2
    23b0:	003a9106 	br	df8 <__alt_mem_VGA_Subsystem_Char_Buf_Subsystem_Onchip_SRAM+0xf7000df8>
    23b4:	01000074 	movhi	r4,1
    23b8:	2105e084 	addi	r4,r4,6018
    23bc:	d9002b15 	stw	r4,172(sp)
    23c0:	003c0c06 	br	13f4 <__alt_mem_VGA_Subsystem_Char_Buf_Subsystem_Onchip_SRAM+0xf70013f4>
    23c4:	d9002c17 	ldw	r4,176(sp)
    23c8:	d9801e04 	addi	r6,sp,120
    23cc:	b80b883a 	mov	r5,r23
    23d0:	00075940 	call	7594 <__sprint_r>
    23d4:	103aab1e 	bne	r2,zero,e84 <__alt_mem_VGA_Subsystem_Char_Buf_Subsystem_Onchip_SRAM+0xf7000e84>
    23d8:	d8c02017 	ldw	r3,128(sp)
    23dc:	da000404 	addi	r8,sp,16
    23e0:	003d4106 	br	18e8 <__alt_mem_VGA_Subsystem_Char_Buf_Subsystem_Onchip_SRAM+0xf70018e8>
    23e4:	d8801f17 	ldw	r2,124(sp)
    23e8:	01400074 	movhi	r5,1
    23ec:	01000044 	movi	r4,1
    23f0:	18c00044 	addi	r3,r3,1
    23f4:	10800044 	addi	r2,r2,1
    23f8:	2945e004 	addi	r5,r5,6016
    23fc:	41000115 	stw	r4,4(r8)
    2400:	41400015 	stw	r5,0(r8)
    2404:	d8c02015 	stw	r3,128(sp)
    2408:	d8801f15 	stw	r2,124(sp)
    240c:	010001c4 	movi	r4,7
    2410:	20805c16 	blt	r4,r2,2584 <___vfprintf_internal_r+0x1b08>
    2414:	42000204 	addi	r8,r8,8
    2418:	8800041e 	bne	r17,zero,242c <___vfprintf_internal_r+0x19b0>
    241c:	d8803317 	ldw	r2,204(sp)
    2420:	1000021e 	bne	r2,zero,242c <___vfprintf_internal_r+0x19b0>
    2424:	9080004c 	andi	r2,r18,1
    2428:	103c0926 	beq	r2,zero,1450 <__alt_mem_VGA_Subsystem_Char_Buf_Subsystem_Onchip_SRAM+0xf7001450>
    242c:	d9003717 	ldw	r4,220(sp)
    2430:	d8801f17 	ldw	r2,124(sp)
    2434:	d9403417 	ldw	r5,208(sp)
    2438:	20c7883a 	add	r3,r4,r3
    243c:	10800044 	addi	r2,r2,1
    2440:	41000115 	stw	r4,4(r8)
    2444:	41400015 	stw	r5,0(r8)
    2448:	d8c02015 	stw	r3,128(sp)
    244c:	d8801f15 	stw	r2,124(sp)
    2450:	010001c4 	movi	r4,7
    2454:	20812116 	blt	r4,r2,28dc <___vfprintf_internal_r+0x1e60>
    2458:	42000204 	addi	r8,r8,8
    245c:	0463c83a 	sub	r17,zero,r17
    2460:	0440730e 	bge	zero,r17,2630 <___vfprintf_internal_r+0x1bb4>
    2464:	05800404 	movi	r22,16
    2468:	b440860e 	bge	r22,r17,2684 <___vfprintf_internal_r+0x1c08>
    246c:	01400074 	movhi	r5,1
    2470:	2945e084 	addi	r5,r5,6018
    2474:	d9402b15 	stw	r5,172(sp)
    2478:	070001c4 	movi	fp,7
    247c:	dcc02c17 	ldw	r19,176(sp)
    2480:	00000306 	br	2490 <___vfprintf_internal_r+0x1a14>
    2484:	42000204 	addi	r8,r8,8
    2488:	8c7ffc04 	addi	r17,r17,-16
    248c:	b440800e 	bge	r22,r17,2690 <___vfprintf_internal_r+0x1c14>
    2490:	18c00404 	addi	r3,r3,16
    2494:	10800044 	addi	r2,r2,1
    2498:	45000015 	stw	r20,0(r8)
    249c:	45800115 	stw	r22,4(r8)
    24a0:	d8c02015 	stw	r3,128(sp)
    24a4:	d8801f15 	stw	r2,124(sp)
    24a8:	e0bff60e 	bge	fp,r2,2484 <__alt_mem_VGA_Subsystem_Char_Buf_Subsystem_Onchip_SRAM+0xf7002484>
    24ac:	d9801e04 	addi	r6,sp,120
    24b0:	b80b883a 	mov	r5,r23
    24b4:	9809883a 	mov	r4,r19
    24b8:	00075940 	call	7594 <__sprint_r>
    24bc:	103a711e 	bne	r2,zero,e84 <__alt_mem_VGA_Subsystem_Char_Buf_Subsystem_Onchip_SRAM+0xf7000e84>
    24c0:	d8c02017 	ldw	r3,128(sp)
    24c4:	d8801f17 	ldw	r2,124(sp)
    24c8:	da000404 	addi	r8,sp,16
    24cc:	003fee06 	br	2488 <__alt_mem_VGA_Subsystem_Char_Buf_Subsystem_Onchip_SRAM+0xf7002488>
    24d0:	00bfffc4 	movi	r2,-1
    24d4:	003a6f06 	br	e94 <__alt_mem_VGA_Subsystem_Char_Buf_Subsystem_Onchip_SRAM+0xf7000e94>
    24d8:	008011c4 	movi	r2,71
    24dc:	1440b816 	blt	r2,r17,27c0 <___vfprintf_internal_r+0x1d44>
    24e0:	04000074 	movhi	r16,1
    24e4:	8405d204 	addi	r16,r16,5960
    24e8:	00c000c4 	movi	r3,3
    24ec:	00bfdfc4 	movi	r2,-129
    24f0:	d8c02a15 	stw	r3,168(sp)
    24f4:	90a4703a 	and	r18,r18,r2
    24f8:	df002783 	ldbu	fp,158(sp)
    24fc:	d8c02e15 	stw	r3,184(sp)
    2500:	d8002915 	stw	zero,164(sp)
    2504:	d8003215 	stw	zero,200(sp)
    2508:	003b2906 	br	11b0 <__alt_mem_VGA_Subsystem_Char_Buf_Subsystem_Onchip_SRAM+0xf70011b0>
    250c:	d9002d17 	ldw	r4,180(sp)
    2510:	24c00017 	ldw	r19,0(r4)
    2514:	21000104 	addi	r4,r4,4
    2518:	d9002d15 	stw	r4,180(sp)
    251c:	982dd7fa 	srai	r22,r19,31
    2520:	b005883a 	mov	r2,r22
    2524:	003a9f06 	br	fa4 <__alt_mem_VGA_Subsystem_Char_Buf_Subsystem_Onchip_SRAM+0xf7000fa4>
    2528:	d9402d17 	ldw	r5,180(sp)
    252c:	d8c02f17 	ldw	r3,188(sp)
    2530:	28800017 	ldw	r2,0(r5)
    2534:	29400104 	addi	r5,r5,4
    2538:	d9402d15 	stw	r5,180(sp)
    253c:	10c00015 	stw	r3,0(r2)
    2540:	00398606 	br	b5c <__alt_mem_VGA_Subsystem_Char_Buf_Subsystem_Onchip_SRAM+0xf7000b5c>
    2544:	d9402d17 	ldw	r5,180(sp)
    2548:	002d883a 	mov	r22,zero
    254c:	2cc00017 	ldw	r19,0(r5)
    2550:	29400104 	addi	r5,r5,4
    2554:	d9402d15 	stw	r5,180(sp)
    2558:	003c2306 	br	15e8 <__alt_mem_VGA_Subsystem_Char_Buf_Subsystem_Onchip_SRAM+0xf70015e8>
    255c:	d8c02d17 	ldw	r3,180(sp)
    2560:	d9002917 	ldw	r4,164(sp)
    2564:	002d883a 	mov	r22,zero
    2568:	18800104 	addi	r2,r3,4
    256c:	1cc0000b 	ldhu	r19,0(r3)
    2570:	203dc10e 	bge	r4,zero,1c78 <__alt_mem_VGA_Subsystem_Char_Buf_Subsystem_Onchip_SRAM+0xf7001c78>
    2574:	003f7506 	br	234c <__alt_mem_VGA_Subsystem_Char_Buf_Subsystem_Onchip_SRAM+0xf700234c>
    2578:	04000074 	movhi	r16,1
    257c:	8405d004 	addi	r16,r16,5952
    2580:	003acc06 	br	10b4 <__alt_mem_VGA_Subsystem_Char_Buf_Subsystem_Onchip_SRAM+0xf70010b4>
    2584:	d9002c17 	ldw	r4,176(sp)
    2588:	d9801e04 	addi	r6,sp,120
    258c:	b80b883a 	mov	r5,r23
    2590:	00075940 	call	7594 <__sprint_r>
    2594:	103a3b1e 	bne	r2,zero,e84 <__alt_mem_VGA_Subsystem_Char_Buf_Subsystem_Onchip_SRAM+0xf7000e84>
    2598:	dc402617 	ldw	r17,152(sp)
    259c:	d8c02017 	ldw	r3,128(sp)
    25a0:	da000404 	addi	r8,sp,16
    25a4:	003f9c06 	br	2418 <__alt_mem_VGA_Subsystem_Char_Buf_Subsystem_Onchip_SRAM+0xf7002418>
    25a8:	ac400043 	ldbu	r17,1(r21)
    25ac:	94800814 	ori	r18,r18,32
    25b0:	ad400044 	addi	r21,r21,1
    25b4:	8c403fcc 	andi	r17,r17,255
    25b8:	8c40201c 	xori	r17,r17,128
    25bc:	8c7fe004 	addi	r17,r17,-128
    25c0:	00398f06 	br	c00 <__alt_mem_VGA_Subsystem_Char_Buf_Subsystem_Onchip_SRAM+0xf7000c00>
    25c4:	d8c02d15 	stw	r3,180(sp)
    25c8:	0039883a 	mov	fp,zero
    25cc:	003e3506 	br	1ea4 <__alt_mem_VGA_Subsystem_Char_Buf_Subsystem_Onchip_SRAM+0xf7001ea4>
    25d0:	d9002c17 	ldw	r4,176(sp)
    25d4:	d9801e04 	addi	r6,sp,120
    25d8:	b80b883a 	mov	r5,r23
    25dc:	00075940 	call	7594 <__sprint_r>
    25e0:	103a281e 	bne	r2,zero,e84 <__alt_mem_VGA_Subsystem_Char_Buf_Subsystem_Onchip_SRAM+0xf7000e84>
    25e4:	d8c02017 	ldw	r3,128(sp)
    25e8:	da000404 	addi	r8,sp,16
    25ec:	003cd006 	br	1930 <__alt_mem_VGA_Subsystem_Char_Buf_Subsystem_Onchip_SRAM+0xf7001930>
    25f0:	8009883a 	mov	r4,r16
    25f4:	da003d15 	stw	r8,244(sp)
    25f8:	00074000 	call	7400 <strlen>
    25fc:	d8802e15 	stw	r2,184(sp)
    2600:	da003d17 	ldw	r8,244(sp)
    2604:	103c340e 	bge	r2,zero,16d8 <__alt_mem_VGA_Subsystem_Char_Buf_Subsystem_Onchip_SRAM+0xf70016d8>
    2608:	0005883a 	mov	r2,zero
    260c:	003c3206 	br	16d8 <__alt_mem_VGA_Subsystem_Char_Buf_Subsystem_Onchip_SRAM+0xf70016d8>
    2610:	d9002c17 	ldw	r4,176(sp)
    2614:	d9801e04 	addi	r6,sp,120
    2618:	b80b883a 	mov	r5,r23
    261c:	00075940 	call	7594 <__sprint_r>
    2620:	103a181e 	bne	r2,zero,e84 <__alt_mem_VGA_Subsystem_Char_Buf_Subsystem_Onchip_SRAM+0xf7000e84>
    2624:	d8c02017 	ldw	r3,128(sp)
    2628:	d8801f17 	ldw	r2,124(sp)
    262c:	da000404 	addi	r8,sp,16
    2630:	d9403317 	ldw	r5,204(sp)
    2634:	10800044 	addi	r2,r2,1
    2638:	44000015 	stw	r16,0(r8)
    263c:	28c7883a 	add	r3,r5,r3
    2640:	003b7d06 	br	1438 <__alt_mem_VGA_Subsystem_Char_Buf_Subsystem_Onchip_SRAM+0xf7001438>
    2644:	01000074 	movhi	r4,1
    2648:	2105e484 	addi	r4,r4,6034
    264c:	d9003515 	stw	r4,212(sp)
    2650:	003b1406 	br	12a4 <__alt_mem_VGA_Subsystem_Char_Buf_Subsystem_Onchip_SRAM+0xf70012a4>
    2654:	013fffc4 	movi	r4,-1
    2658:	003a3506 	br	f30 <__alt_mem_VGA_Subsystem_Char_Buf_Subsystem_Onchip_SRAM+0xf7000f30>
    265c:	0023883a 	mov	r17,zero
    2660:	003d9d06 	br	1cd8 <__alt_mem_VGA_Subsystem_Char_Buf_Subsystem_Onchip_SRAM+0xf7001cd8>
    2664:	d9002c17 	ldw	r4,176(sp)
    2668:	d9801e04 	addi	r6,sp,120
    266c:	b80b883a 	mov	r5,r23
    2670:	00075940 	call	7594 <__sprint_r>
    2674:	103a031e 	bne	r2,zero,e84 <__alt_mem_VGA_Subsystem_Char_Buf_Subsystem_Onchip_SRAM+0xf7000e84>
    2678:	d8c02017 	ldw	r3,128(sp)
    267c:	da000404 	addi	r8,sp,16
    2680:	003d9406 	br	1cd4 <__alt_mem_VGA_Subsystem_Char_Buf_Subsystem_Onchip_SRAM+0xf7001cd4>
    2684:	01000074 	movhi	r4,1
    2688:	2105e084 	addi	r4,r4,6018
    268c:	d9002b15 	stw	r4,172(sp)
    2690:	d9002b17 	ldw	r4,172(sp)
    2694:	1c47883a 	add	r3,r3,r17
    2698:	10800044 	addi	r2,r2,1
    269c:	41000015 	stw	r4,0(r8)
    26a0:	44400115 	stw	r17,4(r8)
    26a4:	d8c02015 	stw	r3,128(sp)
    26a8:	d8801f15 	stw	r2,124(sp)
    26ac:	010001c4 	movi	r4,7
    26b0:	20bfd716 	blt	r4,r2,2610 <__alt_mem_VGA_Subsystem_Char_Buf_Subsystem_Onchip_SRAM+0xf7002610>
    26b4:	42000204 	addi	r8,r8,8
    26b8:	003fdd06 	br	2630 <__alt_mem_VGA_Subsystem_Char_Buf_Subsystem_Onchip_SRAM+0xf7002630>
    26bc:	d9002c17 	ldw	r4,176(sp)
    26c0:	d9801e04 	addi	r6,sp,120
    26c4:	b80b883a 	mov	r5,r23
    26c8:	00075940 	call	7594 <__sprint_r>
    26cc:	1039ed1e 	bne	r2,zero,e84 <__alt_mem_VGA_Subsystem_Char_Buf_Subsystem_Onchip_SRAM+0xf7000e84>
    26d0:	d8802617 	ldw	r2,152(sp)
    26d4:	d8c02017 	ldw	r3,128(sp)
    26d8:	da000404 	addi	r8,sp,16
    26dc:	003e1006 	br	1f20 <__alt_mem_VGA_Subsystem_Char_Buf_Subsystem_Onchip_SRAM+0xf7001f20>
    26e0:	00800044 	movi	r2,1
    26e4:	10803fcc 	andi	r2,r2,255
    26e8:	00c00044 	movi	r3,1
    26ec:	10fa3526 	beq	r2,r3,fc4 <__alt_mem_VGA_Subsystem_Char_Buf_Subsystem_Onchip_SRAM+0xf7000fc4>
    26f0:	00c00084 	movi	r3,2
    26f4:	10fbcb26 	beq	r2,r3,1624 <__alt_mem_VGA_Subsystem_Char_Buf_Subsystem_Onchip_SRAM+0xf7001624>
    26f8:	003a8f06 	br	1138 <__alt_mem_VGA_Subsystem_Char_Buf_Subsystem_Onchip_SRAM+0xf7001138>
    26fc:	01000074 	movhi	r4,1
    2700:	2105e484 	addi	r4,r4,6034
    2704:	d9003515 	stw	r4,212(sp)
    2708:	003b7606 	br	14e4 <__alt_mem_VGA_Subsystem_Char_Buf_Subsystem_Onchip_SRAM+0xf70014e4>
    270c:	d8802917 	ldw	r2,164(sp)
    2710:	00c00184 	movi	r3,6
    2714:	1880012e 	bgeu	r3,r2,271c <___vfprintf_internal_r+0x1ca0>
    2718:	1805883a 	mov	r2,r3
    271c:	d8802e15 	stw	r2,184(sp)
    2720:	1000ef16 	blt	r2,zero,2ae0 <___vfprintf_internal_r+0x2064>
    2724:	04000074 	movhi	r16,1
    2728:	d8802a15 	stw	r2,168(sp)
    272c:	dcc02d15 	stw	r19,180(sp)
    2730:	d8002915 	stw	zero,164(sp)
    2734:	d8003215 	stw	zero,200(sp)
    2738:	8405de04 	addi	r16,r16,6008
    273c:	0039883a 	mov	fp,zero
    2740:	003aa206 	br	11cc <__alt_mem_VGA_Subsystem_Char_Buf_Subsystem_Onchip_SRAM+0xf70011cc>
    2744:	0021883a 	mov	r16,zero
    2748:	003e0706 	br	1f68 <__alt_mem_VGA_Subsystem_Char_Buf_Subsystem_Onchip_SRAM+0xf7001f68>
    274c:	d9002c17 	ldw	r4,176(sp)
    2750:	d9801e04 	addi	r6,sp,120
    2754:	b80b883a 	mov	r5,r23
    2758:	00075940 	call	7594 <__sprint_r>
    275c:	1039c91e 	bne	r2,zero,e84 <__alt_mem_VGA_Subsystem_Char_Buf_Subsystem_Onchip_SRAM+0xf7000e84>
    2760:	d8802617 	ldw	r2,152(sp)
    2764:	d9403317 	ldw	r5,204(sp)
    2768:	d8c02017 	ldw	r3,128(sp)
    276c:	da000404 	addi	r8,sp,16
    2770:	2885c83a 	sub	r2,r5,r2
    2774:	003dfb06 	br	1f64 <__alt_mem_VGA_Subsystem_Char_Buf_Subsystem_Onchip_SRAM+0xf7001f64>
    2778:	9080004c 	andi	r2,r18,1
    277c:	103e8f1e 	bne	r2,zero,21bc <__alt_mem_VGA_Subsystem_Char_Buf_Subsystem_Onchip_SRAM+0xf70021bc>
    2780:	d8802117 	ldw	r2,132(sp)
    2784:	003e9e06 	br	2200 <__alt_mem_VGA_Subsystem_Char_Buf_Subsystem_Onchip_SRAM+0xf7002200>
    2788:	1025883a 	mov	r18,r2
    278c:	0039883a 	mov	fp,zero
    2790:	00800084 	movi	r2,2
    2794:	003fd306 	br	26e4 <__alt_mem_VGA_Subsystem_Char_Buf_Subsystem_Onchip_SRAM+0xf70026e4>
    2798:	07000b44 	movi	fp,45
    279c:	df002785 	stb	fp,158(sp)
    27a0:	003a4006 	br	10a4 <__alt_mem_VGA_Subsystem_Char_Buf_Subsystem_Onchip_SRAM+0xf70010a4>
    27a4:	00c00b44 	movi	r3,45
    27a8:	d8c02785 	stb	r3,158(sp)
    27ac:	d8802a15 	stw	r2,168(sp)
    27b0:	dc802b17 	ldw	r18,172(sp)
    27b4:	d8002915 	stw	zero,164(sp)
    27b8:	07000b44 	movi	fp,45
    27bc:	003a8006 	br	11c0 <__alt_mem_VGA_Subsystem_Char_Buf_Subsystem_Onchip_SRAM+0xf70011c0>
    27c0:	04000074 	movhi	r16,1
    27c4:	8405d304 	addi	r16,r16,5964
    27c8:	003f4706 	br	24e8 <__alt_mem_VGA_Subsystem_Char_Buf_Subsystem_Onchip_SRAM+0xf70024e8>
    27cc:	d8c02d17 	ldw	r3,180(sp)
    27d0:	d9002f17 	ldw	r4,188(sp)
    27d4:	18800017 	ldw	r2,0(r3)
    27d8:	18c00104 	addi	r3,r3,4
    27dc:	d8c02d15 	stw	r3,180(sp)
    27e0:	11000015 	stw	r4,0(r2)
    27e4:	0038dd06 	br	b5c <__alt_mem_VGA_Subsystem_Char_Buf_Subsystem_Onchip_SRAM+0xf7000b5c>
    27e8:	dd802617 	ldw	r22,152(sp)
    27ec:	00bfff44 	movi	r2,-3
    27f0:	b0801c16 	blt	r22,r2,2864 <___vfprintf_internal_r+0x1de8>
    27f4:	d9402917 	ldw	r5,164(sp)
    27f8:	2d801a16 	blt	r5,r22,2864 <___vfprintf_internal_r+0x1de8>
    27fc:	dd803215 	stw	r22,200(sp)
    2800:	003e8906 	br	2228 <__alt_mem_VGA_Subsystem_Char_Buf_Subsystem_Onchip_SRAM+0xf7002228>
    2804:	01000074 	movhi	r4,1
    2808:	2105e084 	addi	r4,r4,6018
    280c:	d9002b15 	stw	r4,172(sp)
    2810:	003c9106 	br	1a58 <__alt_mem_VGA_Subsystem_Char_Buf_Subsystem_Onchip_SRAM+0xf7001a58>
    2814:	e005883a 	mov	r2,fp
    2818:	003e7906 	br	2200 <__alt_mem_VGA_Subsystem_Char_Buf_Subsystem_Onchip_SRAM+0xf7002200>
    281c:	d9402917 	ldw	r5,164(sp)
    2820:	df002783 	ldbu	fp,158(sp)
    2824:	dcc02d15 	stw	r19,180(sp)
    2828:	d9402a15 	stw	r5,168(sp)
    282c:	d9402e15 	stw	r5,184(sp)
    2830:	d8002915 	stw	zero,164(sp)
    2834:	d8003215 	stw	zero,200(sp)
    2838:	003a5d06 	br	11b0 <__alt_mem_VGA_Subsystem_Char_Buf_Subsystem_Onchip_SRAM+0xf70011b0>
    283c:	9080004c 	andi	r2,r18,1
    2840:	0039883a 	mov	fp,zero
    2844:	10000426 	beq	r2,zero,2858 <___vfprintf_internal_r+0x1ddc>
    2848:	00800c04 	movi	r2,48
    284c:	dc001dc4 	addi	r16,sp,119
    2850:	d8801dc5 	stb	r2,119(sp)
    2854:	003b8006 	br	1658 <__alt_mem_VGA_Subsystem_Char_Buf_Subsystem_Onchip_SRAM+0xf7001658>
    2858:	d8002e15 	stw	zero,184(sp)
    285c:	dc001e04 	addi	r16,sp,120
    2860:	003a4d06 	br	1198 <__alt_mem_VGA_Subsystem_Char_Buf_Subsystem_Onchip_SRAM+0xf7001198>
    2864:	8c7fff84 	addi	r17,r17,-2
    2868:	b5bfffc4 	addi	r22,r22,-1
    286c:	dd802615 	stw	r22,152(sp)
    2870:	dc4022c5 	stb	r17,139(sp)
    2874:	b000bf16 	blt	r22,zero,2b74 <___vfprintf_internal_r+0x20f8>
    2878:	00800ac4 	movi	r2,43
    287c:	d8802305 	stb	r2,140(sp)
    2880:	00800244 	movi	r2,9
    2884:	15807016 	blt	r2,r22,2a48 <___vfprintf_internal_r+0x1fcc>
    2888:	00800c04 	movi	r2,48
    288c:	b5800c04 	addi	r22,r22,48
    2890:	d8802345 	stb	r2,141(sp)
    2894:	dd802385 	stb	r22,142(sp)
    2898:	d88023c4 	addi	r2,sp,143
    289c:	df0022c4 	addi	fp,sp,139
    28a0:	d8c03317 	ldw	r3,204(sp)
    28a4:	1739c83a 	sub	fp,r2,fp
    28a8:	d9003317 	ldw	r4,204(sp)
    28ac:	e0c7883a 	add	r3,fp,r3
    28b0:	df003a15 	stw	fp,232(sp)
    28b4:	d8c02e15 	stw	r3,184(sp)
    28b8:	00800044 	movi	r2,1
    28bc:	1100b30e 	bge	r2,r4,2b8c <___vfprintf_internal_r+0x2110>
    28c0:	d8c02e17 	ldw	r3,184(sp)
    28c4:	18c00044 	addi	r3,r3,1
    28c8:	d8c02e15 	stw	r3,184(sp)
    28cc:	1805883a 	mov	r2,r3
    28d0:	1800ac16 	blt	r3,zero,2b84 <___vfprintf_internal_r+0x2108>
    28d4:	d8003215 	stw	zero,200(sp)
    28d8:	003e5d06 	br	2250 <__alt_mem_VGA_Subsystem_Char_Buf_Subsystem_Onchip_SRAM+0xf7002250>
    28dc:	d9002c17 	ldw	r4,176(sp)
    28e0:	d9801e04 	addi	r6,sp,120
    28e4:	b80b883a 	mov	r5,r23
    28e8:	00075940 	call	7594 <__sprint_r>
    28ec:	1039651e 	bne	r2,zero,e84 <__alt_mem_VGA_Subsystem_Char_Buf_Subsystem_Onchip_SRAM+0xf7000e84>
    28f0:	dc402617 	ldw	r17,152(sp)
    28f4:	d8c02017 	ldw	r3,128(sp)
    28f8:	d8801f17 	ldw	r2,124(sp)
    28fc:	da000404 	addi	r8,sp,16
    2900:	003ed606 	br	245c <__alt_mem_VGA_Subsystem_Char_Buf_Subsystem_Onchip_SRAM+0xf700245c>
    2904:	582b883a 	mov	r21,r11
    2908:	d8002915 	stw	zero,164(sp)
    290c:	0038bd06 	br	c04 <__alt_mem_VGA_Subsystem_Char_Buf_Subsystem_Onchip_SRAM+0xf7000c04>
    2910:	d8802917 	ldw	r2,164(sp)
    2914:	103e071e 	bne	r2,zero,2134 <__alt_mem_VGA_Subsystem_Char_Buf_Subsystem_Onchip_SRAM+0xf7002134>
    2918:	dc002915 	stw	r16,164(sp)
    291c:	003e0506 	br	2134 <__alt_mem_VGA_Subsystem_Char_Buf_Subsystem_Onchip_SRAM+0xf7002134>
    2920:	d9002917 	ldw	r4,164(sp)
    2924:	20c00044 	addi	r3,r4,1
    2928:	003e0f06 	br	2168 <__alt_mem_VGA_Subsystem_Char_Buf_Subsystem_Onchip_SRAM+0xf7002168>
    292c:	01400184 	movi	r5,6
    2930:	d9402915 	stw	r5,164(sp)
    2934:	003dff06 	br	2134 <__alt_mem_VGA_Subsystem_Char_Buf_Subsystem_Onchip_SRAM+0xf7002134>
    2938:	d8802104 	addi	r2,sp,132
    293c:	d8800315 	stw	r2,12(sp)
    2940:	d8802504 	addi	r2,sp,148
    2944:	d8800215 	stw	r2,8(sp)
    2948:	d8802604 	addi	r2,sp,152
    294c:	d8800115 	stw	r2,4(sp)
    2950:	d8802917 	ldw	r2,164(sp)
    2954:	d9403617 	ldw	r5,216(sp)
    2958:	d9002c17 	ldw	r4,176(sp)
    295c:	d8800015 	stw	r2,0(sp)
    2960:	01c000c4 	movi	r7,3
    2964:	980d883a 	mov	r6,r19
    2968:	da003d15 	stw	r8,244(sp)
    296c:	00030a00 	call	30a0 <_dtoa_r>
    2970:	d8c02917 	ldw	r3,164(sp)
    2974:	da003d17 	ldw	r8,244(sp)
    2978:	1021883a 	mov	r16,r2
    297c:	10f9883a 	add	fp,r2,r3
    2980:	81000007 	ldb	r4,0(r16)
    2984:	00800c04 	movi	r2,48
    2988:	20805e26 	beq	r4,r2,2b04 <___vfprintf_internal_r+0x2088>
    298c:	d8c02617 	ldw	r3,152(sp)
    2990:	e0f9883a 	add	fp,fp,r3
    2994:	003e0a06 	br	21c0 <__alt_mem_VGA_Subsystem_Char_Buf_Subsystem_Onchip_SRAM+0xf70021c0>
    2998:	00c00b44 	movi	r3,45
    299c:	24e0003c 	xorhi	r19,r4,32768
    29a0:	d8c02a05 	stb	r3,168(sp)
    29a4:	003de906 	br	214c <__alt_mem_VGA_Subsystem_Char_Buf_Subsystem_Onchip_SRAM+0xf700214c>
    29a8:	d8c03217 	ldw	r3,200(sp)
    29ac:	00c07a0e 	bge	zero,r3,2b98 <___vfprintf_internal_r+0x211c>
    29b0:	00800044 	movi	r2,1
    29b4:	d9003317 	ldw	r4,204(sp)
    29b8:	1105883a 	add	r2,r2,r4
    29bc:	d8802e15 	stw	r2,184(sp)
    29c0:	10004e16 	blt	r2,zero,2afc <___vfprintf_internal_r+0x2080>
    29c4:	044019c4 	movi	r17,103
    29c8:	003e2106 	br	2250 <__alt_mem_VGA_Subsystem_Char_Buf_Subsystem_Onchip_SRAM+0xf7002250>
    29cc:	d9002917 	ldw	r4,164(sp)
    29d0:	d8802104 	addi	r2,sp,132
    29d4:	d8800315 	stw	r2,12(sp)
    29d8:	d9000015 	stw	r4,0(sp)
    29dc:	d8802504 	addi	r2,sp,148
    29e0:	d9403617 	ldw	r5,216(sp)
    29e4:	d9002c17 	ldw	r4,176(sp)
    29e8:	d8800215 	stw	r2,8(sp)
    29ec:	d8802604 	addi	r2,sp,152
    29f0:	d8800115 	stw	r2,4(sp)
    29f4:	01c000c4 	movi	r7,3
    29f8:	980d883a 	mov	r6,r19
    29fc:	da003d15 	stw	r8,244(sp)
    2a00:	00030a00 	call	30a0 <_dtoa_r>
    2a04:	d8c02917 	ldw	r3,164(sp)
    2a08:	da003d17 	ldw	r8,244(sp)
    2a0c:	1021883a 	mov	r16,r2
    2a10:	00801184 	movi	r2,70
    2a14:	80f9883a 	add	fp,r16,r3
    2a18:	88bfd926 	beq	r17,r2,2980 <__alt_mem_VGA_Subsystem_Char_Buf_Subsystem_Onchip_SRAM+0xf7002980>
    2a1c:	003de806 	br	21c0 <__alt_mem_VGA_Subsystem_Char_Buf_Subsystem_Onchip_SRAM+0xf70021c0>
    2a20:	d9002917 	ldw	r4,164(sp)
    2a24:	00c04d0e 	bge	zero,r3,2b5c <___vfprintf_internal_r+0x20e0>
    2a28:	2000441e 	bne	r4,zero,2b3c <___vfprintf_internal_r+0x20c0>
    2a2c:	9480004c 	andi	r18,r18,1
    2a30:	9000421e 	bne	r18,zero,2b3c <___vfprintf_internal_r+0x20c0>
    2a34:	1805883a 	mov	r2,r3
    2a38:	18007016 	blt	r3,zero,2bfc <___vfprintf_internal_r+0x2180>
    2a3c:	d8c03217 	ldw	r3,200(sp)
    2a40:	d8c02e15 	stw	r3,184(sp)
    2a44:	003e0206 	br	2250 <__alt_mem_VGA_Subsystem_Char_Buf_Subsystem_Onchip_SRAM+0xf7002250>
    2a48:	df0022c4 	addi	fp,sp,139
    2a4c:	dc002915 	stw	r16,164(sp)
    2a50:	4027883a 	mov	r19,r8
    2a54:	e021883a 	mov	r16,fp
    2a58:	b009883a 	mov	r4,r22
    2a5c:	01400284 	movi	r5,10
    2a60:	000aac40 	call	aac4 <__modsi3>
    2a64:	10800c04 	addi	r2,r2,48
    2a68:	843fffc4 	addi	r16,r16,-1
    2a6c:	b009883a 	mov	r4,r22
    2a70:	01400284 	movi	r5,10
    2a74:	80800005 	stb	r2,0(r16)
    2a78:	000aa400 	call	aa40 <__divsi3>
    2a7c:	102d883a 	mov	r22,r2
    2a80:	00800244 	movi	r2,9
    2a84:	15bff416 	blt	r2,r22,2a58 <__alt_mem_VGA_Subsystem_Char_Buf_Subsystem_Onchip_SRAM+0xf7002a58>
    2a88:	9811883a 	mov	r8,r19
    2a8c:	b0800c04 	addi	r2,r22,48
    2a90:	8027883a 	mov	r19,r16
    2a94:	997fffc4 	addi	r5,r19,-1
    2a98:	98bfffc5 	stb	r2,-1(r19)
    2a9c:	dc002917 	ldw	r16,164(sp)
    2aa0:	2f006a2e 	bgeu	r5,fp,2c4c <___vfprintf_internal_r+0x21d0>
    2aa4:	d9c02384 	addi	r7,sp,142
    2aa8:	3ccfc83a 	sub	r7,r7,r19
    2aac:	d9002344 	addi	r4,sp,141
    2ab0:	e1cf883a 	add	r7,fp,r7
    2ab4:	00000106 	br	2abc <___vfprintf_internal_r+0x2040>
    2ab8:	28800003 	ldbu	r2,0(r5)
    2abc:	20800005 	stb	r2,0(r4)
    2ac0:	21000044 	addi	r4,r4,1
    2ac4:	29400044 	addi	r5,r5,1
    2ac8:	393ffb1e 	bne	r7,r4,2ab8 <__alt_mem_VGA_Subsystem_Char_Buf_Subsystem_Onchip_SRAM+0xf7002ab8>
    2acc:	d8802304 	addi	r2,sp,140
    2ad0:	14c5c83a 	sub	r2,r2,r19
    2ad4:	d8c02344 	addi	r3,sp,141
    2ad8:	1885883a 	add	r2,r3,r2
    2adc:	003f7006 	br	28a0 <__alt_mem_VGA_Subsystem_Char_Buf_Subsystem_Onchip_SRAM+0xf70028a0>
    2ae0:	0005883a 	mov	r2,zero
    2ae4:	003f0f06 	br	2724 <__alt_mem_VGA_Subsystem_Char_Buf_Subsystem_Onchip_SRAM+0xf7002724>
    2ae8:	d8c03217 	ldw	r3,200(sp)
    2aec:	18c00044 	addi	r3,r3,1
    2af0:	d8c02e15 	stw	r3,184(sp)
    2af4:	1805883a 	mov	r2,r3
    2af8:	183fb20e 	bge	r3,zero,29c4 <__alt_mem_VGA_Subsystem_Char_Buf_Subsystem_Onchip_SRAM+0xf70029c4>
    2afc:	0005883a 	mov	r2,zero
    2b00:	003fb006 	br	29c4 <__alt_mem_VGA_Subsystem_Char_Buf_Subsystem_Onchip_SRAM+0xf70029c4>
    2b04:	d9003617 	ldw	r4,216(sp)
    2b08:	000d883a 	mov	r6,zero
    2b0c:	000f883a 	mov	r7,zero
    2b10:	980b883a 	mov	r5,r19
    2b14:	d8c03c15 	stw	r3,240(sp)
    2b18:	da003d15 	stw	r8,244(sp)
    2b1c:	000bd880 	call	bd88 <__eqdf2>
    2b20:	d8c03c17 	ldw	r3,240(sp)
    2b24:	da003d17 	ldw	r8,244(sp)
    2b28:	103f9826 	beq	r2,zero,298c <__alt_mem_VGA_Subsystem_Char_Buf_Subsystem_Onchip_SRAM+0xf700298c>
    2b2c:	00800044 	movi	r2,1
    2b30:	10c7c83a 	sub	r3,r2,r3
    2b34:	d8c02615 	stw	r3,152(sp)
    2b38:	003f9506 	br	2990 <__alt_mem_VGA_Subsystem_Char_Buf_Subsystem_Onchip_SRAM+0xf7002990>
    2b3c:	d9002917 	ldw	r4,164(sp)
    2b40:	d8c03217 	ldw	r3,200(sp)
    2b44:	20800044 	addi	r2,r4,1
    2b48:	1885883a 	add	r2,r3,r2
    2b4c:	d8802e15 	stw	r2,184(sp)
    2b50:	103dbf0e 	bge	r2,zero,2250 <__alt_mem_VGA_Subsystem_Char_Buf_Subsystem_Onchip_SRAM+0xf7002250>
    2b54:	0005883a 	mov	r2,zero
    2b58:	003dbd06 	br	2250 <__alt_mem_VGA_Subsystem_Char_Buf_Subsystem_Onchip_SRAM+0xf7002250>
    2b5c:	2000211e 	bne	r4,zero,2be4 <___vfprintf_internal_r+0x2168>
    2b60:	9480004c 	andi	r18,r18,1
    2b64:	90001f1e 	bne	r18,zero,2be4 <___vfprintf_internal_r+0x2168>
    2b68:	00800044 	movi	r2,1
    2b6c:	d8802e15 	stw	r2,184(sp)
    2b70:	003db706 	br	2250 <__alt_mem_VGA_Subsystem_Char_Buf_Subsystem_Onchip_SRAM+0xf7002250>
    2b74:	00800b44 	movi	r2,45
    2b78:	05adc83a 	sub	r22,zero,r22
    2b7c:	d8802305 	stb	r2,140(sp)
    2b80:	003f3f06 	br	2880 <__alt_mem_VGA_Subsystem_Char_Buf_Subsystem_Onchip_SRAM+0xf7002880>
    2b84:	0005883a 	mov	r2,zero
    2b88:	003f5206 	br	28d4 <__alt_mem_VGA_Subsystem_Char_Buf_Subsystem_Onchip_SRAM+0xf70028d4>
    2b8c:	90a4703a 	and	r18,r18,r2
    2b90:	903f4e26 	beq	r18,zero,28cc <__alt_mem_VGA_Subsystem_Char_Buf_Subsystem_Onchip_SRAM+0xf70028cc>
    2b94:	003f4a06 	br	28c0 <__alt_mem_VGA_Subsystem_Char_Buf_Subsystem_Onchip_SRAM+0xf70028c0>
    2b98:	00800084 	movi	r2,2
    2b9c:	10c5c83a 	sub	r2,r2,r3
    2ba0:	003f8406 	br	29b4 <__alt_mem_VGA_Subsystem_Char_Buf_Subsystem_Onchip_SRAM+0xf70029b4>
    2ba4:	d8802d17 	ldw	r2,180(sp)
    2ba8:	d9002d17 	ldw	r4,180(sp)
    2bac:	ac400043 	ldbu	r17,1(r21)
    2bb0:	10800017 	ldw	r2,0(r2)
    2bb4:	582b883a 	mov	r21,r11
    2bb8:	d8802915 	stw	r2,164(sp)
    2bbc:	20800104 	addi	r2,r4,4
    2bc0:	d9002917 	ldw	r4,164(sp)
    2bc4:	d8802d15 	stw	r2,180(sp)
    2bc8:	203e7a0e 	bge	r4,zero,25b4 <__alt_mem_VGA_Subsystem_Char_Buf_Subsystem_Onchip_SRAM+0xf70025b4>
    2bcc:	8c403fcc 	andi	r17,r17,255
    2bd0:	00bfffc4 	movi	r2,-1
    2bd4:	8c40201c 	xori	r17,r17,128
    2bd8:	d8802915 	stw	r2,164(sp)
    2bdc:	8c7fe004 	addi	r17,r17,-128
    2be0:	00380706 	br	c00 <__alt_mem_VGA_Subsystem_Char_Buf_Subsystem_Onchip_SRAM+0xf7000c00>
    2be4:	d8c02917 	ldw	r3,164(sp)
    2be8:	18c00084 	addi	r3,r3,2
    2bec:	d8c02e15 	stw	r3,184(sp)
    2bf0:	1805883a 	mov	r2,r3
    2bf4:	183d960e 	bge	r3,zero,2250 <__alt_mem_VGA_Subsystem_Char_Buf_Subsystem_Onchip_SRAM+0xf7002250>
    2bf8:	003fd606 	br	2b54 <__alt_mem_VGA_Subsystem_Char_Buf_Subsystem_Onchip_SRAM+0xf7002b54>
    2bfc:	0005883a 	mov	r2,zero
    2c00:	003f8e06 	br	2a3c <__alt_mem_VGA_Subsystem_Char_Buf_Subsystem_Onchip_SRAM+0xf7002a3c>
    2c04:	9080004c 	andi	r2,r18,1
    2c08:	103f811e 	bne	r2,zero,2a10 <__alt_mem_VGA_Subsystem_Char_Buf_Subsystem_Onchip_SRAM+0xf7002a10>
    2c0c:	d8802117 	ldw	r2,132(sp)
    2c10:	1405c83a 	sub	r2,r2,r16
    2c14:	d8803315 	stw	r2,204(sp)
    2c18:	b47ef326 	beq	r22,r17,27e8 <__alt_mem_VGA_Subsystem_Char_Buf_Subsystem_Onchip_SRAM+0xf70027e8>
    2c1c:	dd802617 	ldw	r22,152(sp)
    2c20:	003f1106 	br	2868 <__alt_mem_VGA_Subsystem_Char_Buf_Subsystem_Onchip_SRAM+0xf7002868>
    2c24:	d9c02785 	stb	r7,158(sp)
    2c28:	00390406 	br	103c <__alt_mem_VGA_Subsystem_Char_Buf_Subsystem_Onchip_SRAM+0xf700103c>
    2c2c:	d9c02785 	stb	r7,158(sp)
    2c30:	0038d306 	br	f80 <__alt_mem_VGA_Subsystem_Char_Buf_Subsystem_Onchip_SRAM+0xf7000f80>
    2c34:	d9c02785 	stb	r7,158(sp)
    2c38:	003a6106 	br	15c0 <__alt_mem_VGA_Subsystem_Char_Buf_Subsystem_Onchip_SRAM+0xf70015c0>
    2c3c:	d9c02785 	stb	r7,158(sp)
    2c40:	003af806 	br	1824 <__alt_mem_VGA_Subsystem_Char_Buf_Subsystem_Onchip_SRAM+0xf7001824>
    2c44:	0005883a 	mov	r2,zero
    2c48:	003d7e06 	br	2244 <__alt_mem_VGA_Subsystem_Char_Buf_Subsystem_Onchip_SRAM+0xf7002244>
    2c4c:	d8802344 	addi	r2,sp,141
    2c50:	003f1306 	br	28a0 <__alt_mem_VGA_Subsystem_Char_Buf_Subsystem_Onchip_SRAM+0xf70028a0>
    2c54:	d9c02785 	stb	r7,158(sp)
    2c58:	00392306 	br	10e8 <__alt_mem_VGA_Subsystem_Char_Buf_Subsystem_Onchip_SRAM+0xf70010e8>
    2c5c:	d9c02785 	stb	r7,158(sp)
    2c60:	003aa906 	br	1708 <__alt_mem_VGA_Subsystem_Char_Buf_Subsystem_Onchip_SRAM+0xf7001708>
    2c64:	d9c02785 	stb	r7,158(sp)
    2c68:	003a3d06 	br	1560 <__alt_mem_VGA_Subsystem_Char_Buf_Subsystem_Onchip_SRAM+0xf7001560>
    2c6c:	d9c02785 	stb	r7,158(sp)
    2c70:	003aca06 	br	179c <__alt_mem_VGA_Subsystem_Char_Buf_Subsystem_Onchip_SRAM+0xf700179c>

00002c74 <__vfprintf_internal>:
    2c74:	00800074 	movhi	r2,1
    2c78:	108e1004 	addi	r2,r2,14400
    2c7c:	300f883a 	mov	r7,r6
    2c80:	280d883a 	mov	r6,r5
    2c84:	200b883a 	mov	r5,r4
    2c88:	11000017 	ldw	r4,0(r2)
    2c8c:	0000a7c1 	jmpi	a7c <___vfprintf_internal_r>

00002c90 <__sbprintf>:
    2c90:	2880030b 	ldhu	r2,12(r5)
    2c94:	2ac01917 	ldw	r11,100(r5)
    2c98:	2a80038b 	ldhu	r10,14(r5)
    2c9c:	2a400717 	ldw	r9,28(r5)
    2ca0:	2a000917 	ldw	r8,36(r5)
    2ca4:	defee204 	addi	sp,sp,-1144
    2ca8:	00c10004 	movi	r3,1024
    2cac:	dc011a15 	stw	r16,1128(sp)
    2cb0:	10bfff4c 	andi	r2,r2,65533
    2cb4:	2821883a 	mov	r16,r5
    2cb8:	d8cb883a 	add	r5,sp,r3
    2cbc:	dc811c15 	stw	r18,1136(sp)
    2cc0:	dc411b15 	stw	r17,1132(sp)
    2cc4:	dfc11d15 	stw	ra,1140(sp)
    2cc8:	2025883a 	mov	r18,r4
    2ccc:	d881030d 	sth	r2,1036(sp)
    2cd0:	dac11915 	stw	r11,1124(sp)
    2cd4:	da81038d 	sth	r10,1038(sp)
    2cd8:	da410715 	stw	r9,1052(sp)
    2cdc:	da010915 	stw	r8,1060(sp)
    2ce0:	dec10015 	stw	sp,1024(sp)
    2ce4:	dec10415 	stw	sp,1040(sp)
    2ce8:	d8c10215 	stw	r3,1032(sp)
    2cec:	d8c10515 	stw	r3,1044(sp)
    2cf0:	d8010615 	stw	zero,1048(sp)
    2cf4:	0000a7c0 	call	a7c <___vfprintf_internal_r>
    2cf8:	1023883a 	mov	r17,r2
    2cfc:	10000416 	blt	r2,zero,2d10 <__sbprintf+0x80>
    2d00:	d9410004 	addi	r5,sp,1024
    2d04:	9009883a 	mov	r4,r18
    2d08:	00049440 	call	4944 <_fflush_r>
    2d0c:	10000d1e 	bne	r2,zero,2d44 <__sbprintf+0xb4>
    2d10:	d881030b 	ldhu	r2,1036(sp)
    2d14:	1080100c 	andi	r2,r2,64
    2d18:	10000326 	beq	r2,zero,2d28 <__sbprintf+0x98>
    2d1c:	8080030b 	ldhu	r2,12(r16)
    2d20:	10801014 	ori	r2,r2,64
    2d24:	8080030d 	sth	r2,12(r16)
    2d28:	8805883a 	mov	r2,r17
    2d2c:	dfc11d17 	ldw	ra,1140(sp)
    2d30:	dc811c17 	ldw	r18,1136(sp)
    2d34:	dc411b17 	ldw	r17,1132(sp)
    2d38:	dc011a17 	ldw	r16,1128(sp)
    2d3c:	dec11e04 	addi	sp,sp,1144
    2d40:	f800283a 	ret
    2d44:	047fffc4 	movi	r17,-1
    2d48:	003ff106 	br	2d10 <__alt_mem_VGA_Subsystem_Char_Buf_Subsystem_Onchip_SRAM+0xf7002d10>

00002d4c <__swsetup_r>:
    2d4c:	00800074 	movhi	r2,1
    2d50:	defffd04 	addi	sp,sp,-12
    2d54:	108e1004 	addi	r2,r2,14400
    2d58:	dc400115 	stw	r17,4(sp)
    2d5c:	2023883a 	mov	r17,r4
    2d60:	11000017 	ldw	r4,0(r2)
    2d64:	dc000015 	stw	r16,0(sp)
    2d68:	dfc00215 	stw	ra,8(sp)
    2d6c:	2821883a 	mov	r16,r5
    2d70:	20000226 	beq	r4,zero,2d7c <__swsetup_r+0x30>
    2d74:	20800e17 	ldw	r2,56(r4)
    2d78:	10003126 	beq	r2,zero,2e40 <__swsetup_r+0xf4>
    2d7c:	8080030b 	ldhu	r2,12(r16)
    2d80:	10c0020c 	andi	r3,r2,8
    2d84:	1009883a 	mov	r4,r2
    2d88:	18000f26 	beq	r3,zero,2dc8 <__swsetup_r+0x7c>
    2d8c:	80c00417 	ldw	r3,16(r16)
    2d90:	18001526 	beq	r3,zero,2de8 <__swsetup_r+0x9c>
    2d94:	1100004c 	andi	r4,r2,1
    2d98:	20001c1e 	bne	r4,zero,2e0c <__swsetup_r+0xc0>
    2d9c:	1080008c 	andi	r2,r2,2
    2da0:	1000291e 	bne	r2,zero,2e48 <__swsetup_r+0xfc>
    2da4:	80800517 	ldw	r2,20(r16)
    2da8:	80800215 	stw	r2,8(r16)
    2dac:	18001c26 	beq	r3,zero,2e20 <__swsetup_r+0xd4>
    2db0:	0005883a 	mov	r2,zero
    2db4:	dfc00217 	ldw	ra,8(sp)
    2db8:	dc400117 	ldw	r17,4(sp)
    2dbc:	dc000017 	ldw	r16,0(sp)
    2dc0:	dec00304 	addi	sp,sp,12
    2dc4:	f800283a 	ret
    2dc8:	2080040c 	andi	r2,r4,16
    2dcc:	10002e26 	beq	r2,zero,2e88 <__swsetup_r+0x13c>
    2dd0:	2080010c 	andi	r2,r4,4
    2dd4:	10001e1e 	bne	r2,zero,2e50 <__swsetup_r+0x104>
    2dd8:	80c00417 	ldw	r3,16(r16)
    2ddc:	20800214 	ori	r2,r4,8
    2de0:	8080030d 	sth	r2,12(r16)
    2de4:	183feb1e 	bne	r3,zero,2d94 <__alt_mem_VGA_Subsystem_Char_Buf_Subsystem_Onchip_SRAM+0xf7002d94>
    2de8:	1100a00c 	andi	r4,r2,640
    2dec:	01408004 	movi	r5,512
    2df0:	217fe826 	beq	r4,r5,2d94 <__alt_mem_VGA_Subsystem_Char_Buf_Subsystem_Onchip_SRAM+0xf7002d94>
    2df4:	800b883a 	mov	r5,r16
    2df8:	8809883a 	mov	r4,r17
    2dfc:	00054080 	call	5408 <__smakebuf_r>
    2e00:	8080030b 	ldhu	r2,12(r16)
    2e04:	80c00417 	ldw	r3,16(r16)
    2e08:	003fe206 	br	2d94 <__alt_mem_VGA_Subsystem_Char_Buf_Subsystem_Onchip_SRAM+0xf7002d94>
    2e0c:	80800517 	ldw	r2,20(r16)
    2e10:	80000215 	stw	zero,8(r16)
    2e14:	0085c83a 	sub	r2,zero,r2
    2e18:	80800615 	stw	r2,24(r16)
    2e1c:	183fe41e 	bne	r3,zero,2db0 <__alt_mem_VGA_Subsystem_Char_Buf_Subsystem_Onchip_SRAM+0xf7002db0>
    2e20:	80c0030b 	ldhu	r3,12(r16)
    2e24:	0005883a 	mov	r2,zero
    2e28:	1900200c 	andi	r4,r3,128
    2e2c:	203fe126 	beq	r4,zero,2db4 <__alt_mem_VGA_Subsystem_Char_Buf_Subsystem_Onchip_SRAM+0xf7002db4>
    2e30:	18c01014 	ori	r3,r3,64
    2e34:	80c0030d 	sth	r3,12(r16)
    2e38:	00bfffc4 	movi	r2,-1
    2e3c:	003fdd06 	br	2db4 <__alt_mem_VGA_Subsystem_Char_Buf_Subsystem_Onchip_SRAM+0xf7002db4>
    2e40:	0004d200 	call	4d20 <__sinit>
    2e44:	003fcd06 	br	2d7c <__alt_mem_VGA_Subsystem_Char_Buf_Subsystem_Onchip_SRAM+0xf7002d7c>
    2e48:	0005883a 	mov	r2,zero
    2e4c:	003fd606 	br	2da8 <__alt_mem_VGA_Subsystem_Char_Buf_Subsystem_Onchip_SRAM+0xf7002da8>
    2e50:	81400c17 	ldw	r5,48(r16)
    2e54:	28000626 	beq	r5,zero,2e70 <__swsetup_r+0x124>
    2e58:	80801004 	addi	r2,r16,64
    2e5c:	28800326 	beq	r5,r2,2e6c <__swsetup_r+0x120>
    2e60:	8809883a 	mov	r4,r17
    2e64:	0004e940 	call	4e94 <_free_r>
    2e68:	8100030b 	ldhu	r4,12(r16)
    2e6c:	80000c15 	stw	zero,48(r16)
    2e70:	80c00417 	ldw	r3,16(r16)
    2e74:	00bff6c4 	movi	r2,-37
    2e78:	1108703a 	and	r4,r2,r4
    2e7c:	80000115 	stw	zero,4(r16)
    2e80:	80c00015 	stw	r3,0(r16)
    2e84:	003fd506 	br	2ddc <__alt_mem_VGA_Subsystem_Char_Buf_Subsystem_Onchip_SRAM+0xf7002ddc>
    2e88:	00800244 	movi	r2,9
    2e8c:	88800015 	stw	r2,0(r17)
    2e90:	20801014 	ori	r2,r4,64
    2e94:	8080030d 	sth	r2,12(r16)
    2e98:	00bfffc4 	movi	r2,-1
    2e9c:	003fc506 	br	2db4 <__alt_mem_VGA_Subsystem_Char_Buf_Subsystem_Onchip_SRAM+0xf7002db4>

00002ea0 <quorem>:
    2ea0:	defff704 	addi	sp,sp,-36
    2ea4:	dc800215 	stw	r18,8(sp)
    2ea8:	20800417 	ldw	r2,16(r4)
    2eac:	2c800417 	ldw	r18,16(r5)
    2eb0:	dfc00815 	stw	ra,32(sp)
    2eb4:	ddc00715 	stw	r23,28(sp)
    2eb8:	dd800615 	stw	r22,24(sp)
    2ebc:	dd400515 	stw	r21,20(sp)
    2ec0:	dd000415 	stw	r20,16(sp)
    2ec4:	dcc00315 	stw	r19,12(sp)
    2ec8:	dc400115 	stw	r17,4(sp)
    2ecc:	dc000015 	stw	r16,0(sp)
    2ed0:	14807116 	blt	r2,r18,3098 <quorem+0x1f8>
    2ed4:	94bfffc4 	addi	r18,r18,-1
    2ed8:	94ad883a 	add	r22,r18,r18
    2edc:	b5ad883a 	add	r22,r22,r22
    2ee0:	2c400504 	addi	r17,r5,20
    2ee4:	8da9883a 	add	r20,r17,r22
    2ee8:	25400504 	addi	r21,r4,20
    2eec:	282f883a 	mov	r23,r5
    2ef0:	adad883a 	add	r22,r21,r22
    2ef4:	a1400017 	ldw	r5,0(r20)
    2ef8:	2021883a 	mov	r16,r4
    2efc:	b1000017 	ldw	r4,0(r22)
    2f00:	29400044 	addi	r5,r5,1
    2f04:	000ab380 	call	ab38 <__udivsi3>
    2f08:	1027883a 	mov	r19,r2
    2f0c:	10002c26 	beq	r2,zero,2fc0 <quorem+0x120>
    2f10:	a813883a 	mov	r9,r21
    2f14:	880b883a 	mov	r5,r17
    2f18:	0009883a 	mov	r4,zero
    2f1c:	000d883a 	mov	r6,zero
    2f20:	2a000017 	ldw	r8,0(r5)
    2f24:	49c00017 	ldw	r7,0(r9)
    2f28:	29400104 	addi	r5,r5,4
    2f2c:	40bfffcc 	andi	r2,r8,65535
    2f30:	14c5383a 	mul	r2,r2,r19
    2f34:	4010d43a 	srli	r8,r8,16
    2f38:	38ffffcc 	andi	r3,r7,65535
    2f3c:	1105883a 	add	r2,r2,r4
    2f40:	1008d43a 	srli	r4,r2,16
    2f44:	44d1383a 	mul	r8,r8,r19
    2f48:	198d883a 	add	r6,r3,r6
    2f4c:	10ffffcc 	andi	r3,r2,65535
    2f50:	30c7c83a 	sub	r3,r6,r3
    2f54:	380ed43a 	srli	r7,r7,16
    2f58:	4105883a 	add	r2,r8,r4
    2f5c:	180dd43a 	srai	r6,r3,16
    2f60:	113fffcc 	andi	r4,r2,65535
    2f64:	390fc83a 	sub	r7,r7,r4
    2f68:	398d883a 	add	r6,r7,r6
    2f6c:	300e943a 	slli	r7,r6,16
    2f70:	18ffffcc 	andi	r3,r3,65535
    2f74:	1008d43a 	srli	r4,r2,16
    2f78:	38ceb03a 	or	r7,r7,r3
    2f7c:	49c00015 	stw	r7,0(r9)
    2f80:	300dd43a 	srai	r6,r6,16
    2f84:	4a400104 	addi	r9,r9,4
    2f88:	a17fe52e 	bgeu	r20,r5,2f20 <__alt_mem_VGA_Subsystem_Char_Buf_Subsystem_Onchip_SRAM+0xf7002f20>
    2f8c:	b0800017 	ldw	r2,0(r22)
    2f90:	10000b1e 	bne	r2,zero,2fc0 <quorem+0x120>
    2f94:	b0bfff04 	addi	r2,r22,-4
    2f98:	a880082e 	bgeu	r21,r2,2fbc <quorem+0x11c>
    2f9c:	b0ffff17 	ldw	r3,-4(r22)
    2fa0:	18000326 	beq	r3,zero,2fb0 <quorem+0x110>
    2fa4:	00000506 	br	2fbc <quorem+0x11c>
    2fa8:	10c00017 	ldw	r3,0(r2)
    2fac:	1800031e 	bne	r3,zero,2fbc <quorem+0x11c>
    2fb0:	10bfff04 	addi	r2,r2,-4
    2fb4:	94bfffc4 	addi	r18,r18,-1
    2fb8:	a8bffb36 	bltu	r21,r2,2fa8 <__alt_mem_VGA_Subsystem_Char_Buf_Subsystem_Onchip_SRAM+0xf7002fa8>
    2fbc:	84800415 	stw	r18,16(r16)
    2fc0:	b80b883a 	mov	r5,r23
    2fc4:	8009883a 	mov	r4,r16
    2fc8:	00069ec0 	call	69ec <__mcmp>
    2fcc:	10002616 	blt	r2,zero,3068 <quorem+0x1c8>
    2fd0:	9cc00044 	addi	r19,r19,1
    2fd4:	a805883a 	mov	r2,r21
    2fd8:	000b883a 	mov	r5,zero
    2fdc:	11000017 	ldw	r4,0(r2)
    2fe0:	89800017 	ldw	r6,0(r17)
    2fe4:	10800104 	addi	r2,r2,4
    2fe8:	20ffffcc 	andi	r3,r4,65535
    2fec:	194b883a 	add	r5,r3,r5
    2ff0:	30ffffcc 	andi	r3,r6,65535
    2ff4:	28c7c83a 	sub	r3,r5,r3
    2ff8:	300cd43a 	srli	r6,r6,16
    2ffc:	2008d43a 	srli	r4,r4,16
    3000:	180bd43a 	srai	r5,r3,16
    3004:	18ffffcc 	andi	r3,r3,65535
    3008:	2189c83a 	sub	r4,r4,r6
    300c:	2149883a 	add	r4,r4,r5
    3010:	200c943a 	slli	r6,r4,16
    3014:	8c400104 	addi	r17,r17,4
    3018:	200bd43a 	srai	r5,r4,16
    301c:	30c6b03a 	or	r3,r6,r3
    3020:	10ffff15 	stw	r3,-4(r2)
    3024:	a47fed2e 	bgeu	r20,r17,2fdc <__alt_mem_VGA_Subsystem_Char_Buf_Subsystem_Onchip_SRAM+0xf7002fdc>
    3028:	9485883a 	add	r2,r18,r18
    302c:	1085883a 	add	r2,r2,r2
    3030:	a887883a 	add	r3,r21,r2
    3034:	18800017 	ldw	r2,0(r3)
    3038:	10000b1e 	bne	r2,zero,3068 <quorem+0x1c8>
    303c:	18bfff04 	addi	r2,r3,-4
    3040:	a880082e 	bgeu	r21,r2,3064 <quorem+0x1c4>
    3044:	18ffff17 	ldw	r3,-4(r3)
    3048:	18000326 	beq	r3,zero,3058 <quorem+0x1b8>
    304c:	00000506 	br	3064 <quorem+0x1c4>
    3050:	10c00017 	ldw	r3,0(r2)
    3054:	1800031e 	bne	r3,zero,3064 <quorem+0x1c4>
    3058:	10bfff04 	addi	r2,r2,-4
    305c:	94bfffc4 	addi	r18,r18,-1
    3060:	a8bffb36 	bltu	r21,r2,3050 <__alt_mem_VGA_Subsystem_Char_Buf_Subsystem_Onchip_SRAM+0xf7003050>
    3064:	84800415 	stw	r18,16(r16)
    3068:	9805883a 	mov	r2,r19
    306c:	dfc00817 	ldw	ra,32(sp)
    3070:	ddc00717 	ldw	r23,28(sp)
    3074:	dd800617 	ldw	r22,24(sp)
    3078:	dd400517 	ldw	r21,20(sp)
    307c:	dd000417 	ldw	r20,16(sp)
    3080:	dcc00317 	ldw	r19,12(sp)
    3084:	dc800217 	ldw	r18,8(sp)
    3088:	dc400117 	ldw	r17,4(sp)
    308c:	dc000017 	ldw	r16,0(sp)
    3090:	dec00904 	addi	sp,sp,36
    3094:	f800283a 	ret
    3098:	0005883a 	mov	r2,zero
    309c:	003ff306 	br	306c <__alt_mem_VGA_Subsystem_Char_Buf_Subsystem_Onchip_SRAM+0xf700306c>

000030a0 <_dtoa_r>:
    30a0:	20801017 	ldw	r2,64(r4)
    30a4:	deffde04 	addi	sp,sp,-136
    30a8:	df002015 	stw	fp,128(sp)
    30ac:	dcc01b15 	stw	r19,108(sp)
    30b0:	dc801a15 	stw	r18,104(sp)
    30b4:	dc401915 	stw	r17,100(sp)
    30b8:	dc001815 	stw	r16,96(sp)
    30bc:	dfc02115 	stw	ra,132(sp)
    30c0:	ddc01f15 	stw	r23,124(sp)
    30c4:	dd801e15 	stw	r22,120(sp)
    30c8:	dd401d15 	stw	r21,116(sp)
    30cc:	dd001c15 	stw	r20,112(sp)
    30d0:	d9c00315 	stw	r7,12(sp)
    30d4:	2039883a 	mov	fp,r4
    30d8:	3023883a 	mov	r17,r6
    30dc:	2825883a 	mov	r18,r5
    30e0:	dc002417 	ldw	r16,144(sp)
    30e4:	3027883a 	mov	r19,r6
    30e8:	10000826 	beq	r2,zero,310c <_dtoa_r+0x6c>
    30ec:	21801117 	ldw	r6,68(r4)
    30f0:	00c00044 	movi	r3,1
    30f4:	100b883a 	mov	r5,r2
    30f8:	1986983a 	sll	r3,r3,r6
    30fc:	11800115 	stw	r6,4(r2)
    3100:	10c00215 	stw	r3,8(r2)
    3104:	00061cc0 	call	61cc <_Bfree>
    3108:	e0001015 	stw	zero,64(fp)
    310c:	88002e16 	blt	r17,zero,31c8 <_dtoa_r+0x128>
    3110:	80000015 	stw	zero,0(r16)
    3114:	889ffc2c 	andhi	r2,r17,32752
    3118:	00dffc34 	movhi	r3,32752
    311c:	10c01c26 	beq	r2,r3,3190 <_dtoa_r+0xf0>
    3120:	000d883a 	mov	r6,zero
    3124:	000f883a 	mov	r7,zero
    3128:	9009883a 	mov	r4,r18
    312c:	980b883a 	mov	r5,r19
    3130:	000bd880 	call	bd88 <__eqdf2>
    3134:	10002b1e 	bne	r2,zero,31e4 <_dtoa_r+0x144>
    3138:	d9c02317 	ldw	r7,140(sp)
    313c:	00800044 	movi	r2,1
    3140:	38800015 	stw	r2,0(r7)
    3144:	d8802517 	ldw	r2,148(sp)
    3148:	10019e26 	beq	r2,zero,37c4 <_dtoa_r+0x724>
    314c:	d8c02517 	ldw	r3,148(sp)
    3150:	00800074 	movhi	r2,1
    3154:	1085e044 	addi	r2,r2,6017
    3158:	18800015 	stw	r2,0(r3)
    315c:	10bfffc4 	addi	r2,r2,-1
    3160:	dfc02117 	ldw	ra,132(sp)
    3164:	df002017 	ldw	fp,128(sp)
    3168:	ddc01f17 	ldw	r23,124(sp)
    316c:	dd801e17 	ldw	r22,120(sp)
    3170:	dd401d17 	ldw	r21,116(sp)
    3174:	dd001c17 	ldw	r20,112(sp)
    3178:	dcc01b17 	ldw	r19,108(sp)
    317c:	dc801a17 	ldw	r18,104(sp)
    3180:	dc401917 	ldw	r17,100(sp)
    3184:	dc001817 	ldw	r16,96(sp)
    3188:	dec02204 	addi	sp,sp,136
    318c:	f800283a 	ret
    3190:	d8c02317 	ldw	r3,140(sp)
    3194:	0089c3c4 	movi	r2,9999
    3198:	18800015 	stw	r2,0(r3)
    319c:	90017726 	beq	r18,zero,377c <_dtoa_r+0x6dc>
    31a0:	00800074 	movhi	r2,1
    31a4:	1085ec04 	addi	r2,r2,6064
    31a8:	d9002517 	ldw	r4,148(sp)
    31ac:	203fec26 	beq	r4,zero,3160 <__alt_mem_VGA_Subsystem_Char_Buf_Subsystem_Onchip_SRAM+0xf7003160>
    31b0:	10c000c7 	ldb	r3,3(r2)
    31b4:	1801781e 	bne	r3,zero,3798 <_dtoa_r+0x6f8>
    31b8:	10c000c4 	addi	r3,r2,3
    31bc:	d9802517 	ldw	r6,148(sp)
    31c0:	30c00015 	stw	r3,0(r6)
    31c4:	003fe606 	br	3160 <__alt_mem_VGA_Subsystem_Char_Buf_Subsystem_Onchip_SRAM+0xf7003160>
    31c8:	04e00034 	movhi	r19,32768
    31cc:	9cffffc4 	addi	r19,r19,-1
    31d0:	00800044 	movi	r2,1
    31d4:	8ce6703a 	and	r19,r17,r19
    31d8:	80800015 	stw	r2,0(r16)
    31dc:	9823883a 	mov	r17,r19
    31e0:	003fcc06 	br	3114 <__alt_mem_VGA_Subsystem_Char_Buf_Subsystem_Onchip_SRAM+0xf7003114>
    31e4:	d8800204 	addi	r2,sp,8
    31e8:	d8800015 	stw	r2,0(sp)
    31ec:	d9c00104 	addi	r7,sp,4
    31f0:	900b883a 	mov	r5,r18
    31f4:	980d883a 	mov	r6,r19
    31f8:	e009883a 	mov	r4,fp
    31fc:	8820d53a 	srli	r16,r17,20
    3200:	0006db80 	call	6db8 <__d2b>
    3204:	d8800915 	stw	r2,36(sp)
    3208:	8001651e 	bne	r16,zero,37a0 <_dtoa_r+0x700>
    320c:	dd800217 	ldw	r22,8(sp)
    3210:	dc000117 	ldw	r16,4(sp)
    3214:	00800804 	movi	r2,32
    3218:	b421883a 	add	r16,r22,r16
    321c:	80c10c84 	addi	r3,r16,1074
    3220:	10c2d10e 	bge	r2,r3,3d68 <_dtoa_r+0xcc8>
    3224:	00801004 	movi	r2,64
    3228:	81010484 	addi	r4,r16,1042
    322c:	10c7c83a 	sub	r3,r2,r3
    3230:	9108d83a 	srl	r4,r18,r4
    3234:	88e2983a 	sll	r17,r17,r3
    3238:	2448b03a 	or	r4,r4,r17
    323c:	000d1500 	call	d150 <__floatunsidf>
    3240:	017f8434 	movhi	r5,65040
    3244:	01800044 	movi	r6,1
    3248:	1009883a 	mov	r4,r2
    324c:	194b883a 	add	r5,r3,r5
    3250:	843fffc4 	addi	r16,r16,-1
    3254:	d9801115 	stw	r6,68(sp)
    3258:	000d883a 	mov	r6,zero
    325c:	01cffe34 	movhi	r7,16376
    3260:	000c6f80 	call	c6f8 <__subdf3>
    3264:	0198dbf4 	movhi	r6,25455
    3268:	01cff4f4 	movhi	r7,16339
    326c:	3190d844 	addi	r6,r6,17249
    3270:	39e1e9c4 	addi	r7,r7,-30809
    3274:	1009883a 	mov	r4,r2
    3278:	180b883a 	mov	r5,r3
    327c:	000bfe00 	call	bfe0 <__muldf3>
    3280:	01a2d874 	movhi	r6,35681
    3284:	01cff1f4 	movhi	r7,16327
    3288:	31b22cc4 	addi	r6,r6,-14157
    328c:	39e28a04 	addi	r7,r7,-30168
    3290:	180b883a 	mov	r5,r3
    3294:	1009883a 	mov	r4,r2
    3298:	000abf40 	call	abf4 <__adddf3>
    329c:	8009883a 	mov	r4,r16
    32a0:	1029883a 	mov	r20,r2
    32a4:	1823883a 	mov	r17,r3
    32a8:	000d0740 	call	d074 <__floatsidf>
    32ac:	019427f4 	movhi	r6,20639
    32b0:	01cff4f4 	movhi	r7,16339
    32b4:	319e7ec4 	addi	r6,r6,31227
    32b8:	39d104c4 	addi	r7,r7,17427
    32bc:	1009883a 	mov	r4,r2
    32c0:	180b883a 	mov	r5,r3
    32c4:	000bfe00 	call	bfe0 <__muldf3>
    32c8:	100d883a 	mov	r6,r2
    32cc:	180f883a 	mov	r7,r3
    32d0:	a009883a 	mov	r4,r20
    32d4:	880b883a 	mov	r5,r17
    32d8:	000abf40 	call	abf4 <__adddf3>
    32dc:	1009883a 	mov	r4,r2
    32e0:	180b883a 	mov	r5,r3
    32e4:	1029883a 	mov	r20,r2
    32e8:	1823883a 	mov	r17,r3
    32ec:	000cff40 	call	cff4 <__fixdfsi>
    32f0:	000d883a 	mov	r6,zero
    32f4:	000f883a 	mov	r7,zero
    32f8:	a009883a 	mov	r4,r20
    32fc:	880b883a 	mov	r5,r17
    3300:	d8800515 	stw	r2,20(sp)
    3304:	000beec0 	call	beec <__ledf2>
    3308:	10028716 	blt	r2,zero,3d28 <_dtoa_r+0xc88>
    330c:	d8c00517 	ldw	r3,20(sp)
    3310:	00800584 	movi	r2,22
    3314:	10c27536 	bltu	r2,r3,3cec <_dtoa_r+0xc4c>
    3318:	180490fa 	slli	r2,r3,3
    331c:	00c00074 	movhi	r3,1
    3320:	18c60804 	addi	r3,r3,6176
    3324:	1885883a 	add	r2,r3,r2
    3328:	11000017 	ldw	r4,0(r2)
    332c:	11400117 	ldw	r5,4(r2)
    3330:	900d883a 	mov	r6,r18
    3334:	980f883a 	mov	r7,r19
    3338:	000be100 	call	be10 <__gedf2>
    333c:	00828d0e 	bge	zero,r2,3d74 <_dtoa_r+0xcd4>
    3340:	d9000517 	ldw	r4,20(sp)
    3344:	d8000e15 	stw	zero,56(sp)
    3348:	213fffc4 	addi	r4,r4,-1
    334c:	d9000515 	stw	r4,20(sp)
    3350:	b42dc83a 	sub	r22,r22,r16
    3354:	b5bfffc4 	addi	r22,r22,-1
    3358:	b0026f16 	blt	r22,zero,3d18 <_dtoa_r+0xc78>
    335c:	d8000815 	stw	zero,32(sp)
    3360:	d9c00517 	ldw	r7,20(sp)
    3364:	38026416 	blt	r7,zero,3cf8 <_dtoa_r+0xc58>
    3368:	b1ed883a 	add	r22,r22,r7
    336c:	d9c00d15 	stw	r7,52(sp)
    3370:	d8000a15 	stw	zero,40(sp)
    3374:	d9800317 	ldw	r6,12(sp)
    3378:	00800244 	movi	r2,9
    337c:	11811436 	bltu	r2,r6,37d0 <_dtoa_r+0x730>
    3380:	00800144 	movi	r2,5
    3384:	1184e10e 	bge	r2,r6,470c <_dtoa_r+0x166c>
    3388:	31bfff04 	addi	r6,r6,-4
    338c:	d9800315 	stw	r6,12(sp)
    3390:	0023883a 	mov	r17,zero
    3394:	d9800317 	ldw	r6,12(sp)
    3398:	008000c4 	movi	r2,3
    339c:	30836726 	beq	r6,r2,413c <_dtoa_r+0x109c>
    33a0:	1183410e 	bge	r2,r6,40a8 <_dtoa_r+0x1008>
    33a4:	d9c00317 	ldw	r7,12(sp)
    33a8:	00800104 	movi	r2,4
    33ac:	38827c26 	beq	r7,r2,3da0 <_dtoa_r+0xd00>
    33b0:	00800144 	movi	r2,5
    33b4:	3884c41e 	bne	r7,r2,46c8 <_dtoa_r+0x1628>
    33b8:	00800044 	movi	r2,1
    33bc:	d8800b15 	stw	r2,44(sp)
    33c0:	d8c00517 	ldw	r3,20(sp)
    33c4:	d9002217 	ldw	r4,136(sp)
    33c8:	1907883a 	add	r3,r3,r4
    33cc:	19800044 	addi	r6,r3,1
    33d0:	d8c00c15 	stw	r3,48(sp)
    33d4:	d9800615 	stw	r6,24(sp)
    33d8:	0183a40e 	bge	zero,r6,426c <_dtoa_r+0x11cc>
    33dc:	d9800617 	ldw	r6,24(sp)
    33e0:	3021883a 	mov	r16,r6
    33e4:	e0001115 	stw	zero,68(fp)
    33e8:	008005c4 	movi	r2,23
    33ec:	1184c92e 	bgeu	r2,r6,4714 <_dtoa_r+0x1674>
    33f0:	00c00044 	movi	r3,1
    33f4:	00800104 	movi	r2,4
    33f8:	1085883a 	add	r2,r2,r2
    33fc:	11000504 	addi	r4,r2,20
    3400:	180b883a 	mov	r5,r3
    3404:	18c00044 	addi	r3,r3,1
    3408:	313ffb2e 	bgeu	r6,r4,33f8 <__alt_mem_VGA_Subsystem_Char_Buf_Subsystem_Onchip_SRAM+0xf70033f8>
    340c:	e1401115 	stw	r5,68(fp)
    3410:	e009883a 	mov	r4,fp
    3414:	00061240 	call	6124 <_Balloc>
    3418:	d8800715 	stw	r2,28(sp)
    341c:	e0801015 	stw	r2,64(fp)
    3420:	00800384 	movi	r2,14
    3424:	1400f736 	bltu	r2,r16,3804 <_dtoa_r+0x764>
    3428:	8800f626 	beq	r17,zero,3804 <_dtoa_r+0x764>
    342c:	d9c00517 	ldw	r7,20(sp)
    3430:	01c39a0e 	bge	zero,r7,429c <_dtoa_r+0x11fc>
    3434:	388003cc 	andi	r2,r7,15
    3438:	100490fa 	slli	r2,r2,3
    343c:	382bd13a 	srai	r21,r7,4
    3440:	00c00074 	movhi	r3,1
    3444:	18c60804 	addi	r3,r3,6176
    3448:	1885883a 	add	r2,r3,r2
    344c:	a8c0040c 	andi	r3,r21,16
    3450:	12400017 	ldw	r9,0(r2)
    3454:	12000117 	ldw	r8,4(r2)
    3458:	18037926 	beq	r3,zero,4240 <_dtoa_r+0x11a0>
    345c:	00800074 	movhi	r2,1
    3460:	1085fe04 	addi	r2,r2,6136
    3464:	11800817 	ldw	r6,32(r2)
    3468:	11c00917 	ldw	r7,36(r2)
    346c:	9009883a 	mov	r4,r18
    3470:	980b883a 	mov	r5,r19
    3474:	da001715 	stw	r8,92(sp)
    3478:	da401615 	stw	r9,88(sp)
    347c:	000b4a00 	call	b4a0 <__divdf3>
    3480:	da001717 	ldw	r8,92(sp)
    3484:	da401617 	ldw	r9,88(sp)
    3488:	ad4003cc 	andi	r21,r21,15
    348c:	040000c4 	movi	r16,3
    3490:	1023883a 	mov	r17,r2
    3494:	1829883a 	mov	r20,r3
    3498:	a8001126 	beq	r21,zero,34e0 <_dtoa_r+0x440>
    349c:	05c00074 	movhi	r23,1
    34a0:	bdc5fe04 	addi	r23,r23,6136
    34a4:	4805883a 	mov	r2,r9
    34a8:	4007883a 	mov	r3,r8
    34ac:	a980004c 	andi	r6,r21,1
    34b0:	1009883a 	mov	r4,r2
    34b4:	a82bd07a 	srai	r21,r21,1
    34b8:	180b883a 	mov	r5,r3
    34bc:	30000426 	beq	r6,zero,34d0 <_dtoa_r+0x430>
    34c0:	b9800017 	ldw	r6,0(r23)
    34c4:	b9c00117 	ldw	r7,4(r23)
    34c8:	84000044 	addi	r16,r16,1
    34cc:	000bfe00 	call	bfe0 <__muldf3>
    34d0:	bdc00204 	addi	r23,r23,8
    34d4:	a83ff51e 	bne	r21,zero,34ac <__alt_mem_VGA_Subsystem_Char_Buf_Subsystem_Onchip_SRAM+0xf70034ac>
    34d8:	1013883a 	mov	r9,r2
    34dc:	1811883a 	mov	r8,r3
    34e0:	480d883a 	mov	r6,r9
    34e4:	400f883a 	mov	r7,r8
    34e8:	8809883a 	mov	r4,r17
    34ec:	a00b883a 	mov	r5,r20
    34f0:	000b4a00 	call	b4a0 <__divdf3>
    34f4:	d8800f15 	stw	r2,60(sp)
    34f8:	d8c01015 	stw	r3,64(sp)
    34fc:	d8c00e17 	ldw	r3,56(sp)
    3500:	18000626 	beq	r3,zero,351c <_dtoa_r+0x47c>
    3504:	d9000f17 	ldw	r4,60(sp)
    3508:	d9401017 	ldw	r5,64(sp)
    350c:	000d883a 	mov	r6,zero
    3510:	01cffc34 	movhi	r7,16368
    3514:	000beec0 	call	beec <__ledf2>
    3518:	10040b16 	blt	r2,zero,4548 <_dtoa_r+0x14a8>
    351c:	8009883a 	mov	r4,r16
    3520:	000d0740 	call	d074 <__floatsidf>
    3524:	d9800f17 	ldw	r6,60(sp)
    3528:	d9c01017 	ldw	r7,64(sp)
    352c:	1009883a 	mov	r4,r2
    3530:	180b883a 	mov	r5,r3
    3534:	000bfe00 	call	bfe0 <__muldf3>
    3538:	000d883a 	mov	r6,zero
    353c:	01d00734 	movhi	r7,16412
    3540:	1009883a 	mov	r4,r2
    3544:	180b883a 	mov	r5,r3
    3548:	000abf40 	call	abf4 <__adddf3>
    354c:	1021883a 	mov	r16,r2
    3550:	d8800617 	ldw	r2,24(sp)
    3554:	047f3034 	movhi	r17,64704
    3558:	1c63883a 	add	r17,r3,r17
    355c:	10031826 	beq	r2,zero,41c0 <_dtoa_r+0x1120>
    3560:	d8c00517 	ldw	r3,20(sp)
    3564:	db000617 	ldw	r12,24(sp)
    3568:	d8c01315 	stw	r3,76(sp)
    356c:	d9000b17 	ldw	r4,44(sp)
    3570:	20038f26 	beq	r4,zero,43b0 <_dtoa_r+0x1310>
    3574:	60bfffc4 	addi	r2,r12,-1
    3578:	100490fa 	slli	r2,r2,3
    357c:	00c00074 	movhi	r3,1
    3580:	18c60804 	addi	r3,r3,6176
    3584:	1885883a 	add	r2,r3,r2
    3588:	11800017 	ldw	r6,0(r2)
    358c:	11c00117 	ldw	r7,4(r2)
    3590:	d8800717 	ldw	r2,28(sp)
    3594:	0009883a 	mov	r4,zero
    3598:	014ff834 	movhi	r5,16352
    359c:	db001615 	stw	r12,88(sp)
    35a0:	15c00044 	addi	r23,r2,1
    35a4:	000b4a00 	call	b4a0 <__divdf3>
    35a8:	800d883a 	mov	r6,r16
    35ac:	880f883a 	mov	r7,r17
    35b0:	1009883a 	mov	r4,r2
    35b4:	180b883a 	mov	r5,r3
    35b8:	000c6f80 	call	c6f8 <__subdf3>
    35bc:	d9401017 	ldw	r5,64(sp)
    35c0:	d9000f17 	ldw	r4,60(sp)
    35c4:	102b883a 	mov	r21,r2
    35c8:	d8c01215 	stw	r3,72(sp)
    35cc:	000cff40 	call	cff4 <__fixdfsi>
    35d0:	1009883a 	mov	r4,r2
    35d4:	1029883a 	mov	r20,r2
    35d8:	000d0740 	call	d074 <__floatsidf>
    35dc:	d9000f17 	ldw	r4,60(sp)
    35e0:	d9401017 	ldw	r5,64(sp)
    35e4:	100d883a 	mov	r6,r2
    35e8:	180f883a 	mov	r7,r3
    35ec:	000c6f80 	call	c6f8 <__subdf3>
    35f0:	1823883a 	mov	r17,r3
    35f4:	d8c00717 	ldw	r3,28(sp)
    35f8:	d9401217 	ldw	r5,72(sp)
    35fc:	a2000c04 	addi	r8,r20,48
    3600:	1021883a 	mov	r16,r2
    3604:	1a000005 	stb	r8,0(r3)
    3608:	800d883a 	mov	r6,r16
    360c:	880f883a 	mov	r7,r17
    3610:	a809883a 	mov	r4,r21
    3614:	4029883a 	mov	r20,r8
    3618:	000be100 	call	be10 <__gedf2>
    361c:	00841d16 	blt	zero,r2,4694 <_dtoa_r+0x15f4>
    3620:	800d883a 	mov	r6,r16
    3624:	880f883a 	mov	r7,r17
    3628:	0009883a 	mov	r4,zero
    362c:	014ffc34 	movhi	r5,16368
    3630:	000c6f80 	call	c6f8 <__subdf3>
    3634:	d9401217 	ldw	r5,72(sp)
    3638:	100d883a 	mov	r6,r2
    363c:	180f883a 	mov	r7,r3
    3640:	a809883a 	mov	r4,r21
    3644:	000be100 	call	be10 <__gedf2>
    3648:	db001617 	ldw	r12,88(sp)
    364c:	00840e16 	blt	zero,r2,4688 <_dtoa_r+0x15e8>
    3650:	00800044 	movi	r2,1
    3654:	13006b0e 	bge	r2,r12,3804 <_dtoa_r+0x764>
    3658:	d9000717 	ldw	r4,28(sp)
    365c:	dd800f15 	stw	r22,60(sp)
    3660:	dcc01015 	stw	r19,64(sp)
    3664:	2319883a 	add	r12,r4,r12
    3668:	dcc01217 	ldw	r19,72(sp)
    366c:	602d883a 	mov	r22,r12
    3670:	dc801215 	stw	r18,72(sp)
    3674:	b825883a 	mov	r18,r23
    3678:	00000906 	br	36a0 <_dtoa_r+0x600>
    367c:	000c6f80 	call	c6f8 <__subdf3>
    3680:	a80d883a 	mov	r6,r21
    3684:	980f883a 	mov	r7,r19
    3688:	1009883a 	mov	r4,r2
    368c:	180b883a 	mov	r5,r3
    3690:	000beec0 	call	beec <__ledf2>
    3694:	1003e816 	blt	r2,zero,4638 <_dtoa_r+0x1598>
    3698:	b825883a 	mov	r18,r23
    369c:	bd83e926 	beq	r23,r22,4644 <_dtoa_r+0x15a4>
    36a0:	a809883a 	mov	r4,r21
    36a4:	980b883a 	mov	r5,r19
    36a8:	000d883a 	mov	r6,zero
    36ac:	01d00934 	movhi	r7,16420
    36b0:	000bfe00 	call	bfe0 <__muldf3>
    36b4:	000d883a 	mov	r6,zero
    36b8:	01d00934 	movhi	r7,16420
    36bc:	8009883a 	mov	r4,r16
    36c0:	880b883a 	mov	r5,r17
    36c4:	102b883a 	mov	r21,r2
    36c8:	1827883a 	mov	r19,r3
    36cc:	000bfe00 	call	bfe0 <__muldf3>
    36d0:	180b883a 	mov	r5,r3
    36d4:	1009883a 	mov	r4,r2
    36d8:	1821883a 	mov	r16,r3
    36dc:	1023883a 	mov	r17,r2
    36e0:	000cff40 	call	cff4 <__fixdfsi>
    36e4:	1009883a 	mov	r4,r2
    36e8:	1029883a 	mov	r20,r2
    36ec:	000d0740 	call	d074 <__floatsidf>
    36f0:	8809883a 	mov	r4,r17
    36f4:	800b883a 	mov	r5,r16
    36f8:	100d883a 	mov	r6,r2
    36fc:	180f883a 	mov	r7,r3
    3700:	000c6f80 	call	c6f8 <__subdf3>
    3704:	a5000c04 	addi	r20,r20,48
    3708:	a80d883a 	mov	r6,r21
    370c:	980f883a 	mov	r7,r19
    3710:	1009883a 	mov	r4,r2
    3714:	180b883a 	mov	r5,r3
    3718:	95000005 	stb	r20,0(r18)
    371c:	1021883a 	mov	r16,r2
    3720:	1823883a 	mov	r17,r3
    3724:	000beec0 	call	beec <__ledf2>
    3728:	bdc00044 	addi	r23,r23,1
    372c:	800d883a 	mov	r6,r16
    3730:	880f883a 	mov	r7,r17
    3734:	0009883a 	mov	r4,zero
    3738:	014ffc34 	movhi	r5,16368
    373c:	103fcf0e 	bge	r2,zero,367c <__alt_mem_VGA_Subsystem_Char_Buf_Subsystem_Onchip_SRAM+0xf700367c>
    3740:	d8c01317 	ldw	r3,76(sp)
    3744:	d8c00515 	stw	r3,20(sp)
    3748:	d9400917 	ldw	r5,36(sp)
    374c:	e009883a 	mov	r4,fp
    3750:	00061cc0 	call	61cc <_Bfree>
    3754:	d9000517 	ldw	r4,20(sp)
    3758:	d9802317 	ldw	r6,140(sp)
    375c:	d9c02517 	ldw	r7,148(sp)
    3760:	b8000005 	stb	zero,0(r23)
    3764:	20800044 	addi	r2,r4,1
    3768:	30800015 	stw	r2,0(r6)
    376c:	3802aa26 	beq	r7,zero,4218 <_dtoa_r+0x1178>
    3770:	3dc00015 	stw	r23,0(r7)
    3774:	d8800717 	ldw	r2,28(sp)
    3778:	003e7906 	br	3160 <__alt_mem_VGA_Subsystem_Char_Buf_Subsystem_Onchip_SRAM+0xf7003160>
    377c:	00800434 	movhi	r2,16
    3780:	10bfffc4 	addi	r2,r2,-1
    3784:	88a2703a 	and	r17,r17,r2
    3788:	883e851e 	bne	r17,zero,31a0 <__alt_mem_VGA_Subsystem_Char_Buf_Subsystem_Onchip_SRAM+0xf70031a0>
    378c:	00800074 	movhi	r2,1
    3790:	1085e904 	addi	r2,r2,6052
    3794:	003e8406 	br	31a8 <__alt_mem_VGA_Subsystem_Char_Buf_Subsystem_Onchip_SRAM+0xf70031a8>
    3798:	10c00204 	addi	r3,r2,8
    379c:	003e8706 	br	31bc <__alt_mem_VGA_Subsystem_Char_Buf_Subsystem_Onchip_SRAM+0xf70031bc>
    37a0:	01400434 	movhi	r5,16
    37a4:	297fffc4 	addi	r5,r5,-1
    37a8:	994a703a 	and	r5,r19,r5
    37ac:	9009883a 	mov	r4,r18
    37b0:	843f0044 	addi	r16,r16,-1023
    37b4:	294ffc34 	orhi	r5,r5,16368
    37b8:	dd800217 	ldw	r22,8(sp)
    37bc:	d8001115 	stw	zero,68(sp)
    37c0:	003ea506 	br	3258 <__alt_mem_VGA_Subsystem_Char_Buf_Subsystem_Onchip_SRAM+0xf7003258>
    37c4:	00800074 	movhi	r2,1
    37c8:	1085e004 	addi	r2,r2,6016
    37cc:	003e6406 	br	3160 <__alt_mem_VGA_Subsystem_Char_Buf_Subsystem_Onchip_SRAM+0xf7003160>
    37d0:	e0001115 	stw	zero,68(fp)
    37d4:	000b883a 	mov	r5,zero
    37d8:	e009883a 	mov	r4,fp
    37dc:	00061240 	call	6124 <_Balloc>
    37e0:	01bfffc4 	movi	r6,-1
    37e4:	01c00044 	movi	r7,1
    37e8:	d8800715 	stw	r2,28(sp)
    37ec:	d9800c15 	stw	r6,48(sp)
    37f0:	e0801015 	stw	r2,64(fp)
    37f4:	d8000315 	stw	zero,12(sp)
    37f8:	d9c00b15 	stw	r7,44(sp)
    37fc:	d9800615 	stw	r6,24(sp)
    3800:	d8002215 	stw	zero,136(sp)
    3804:	d8800117 	ldw	r2,4(sp)
    3808:	10008916 	blt	r2,zero,3a30 <_dtoa_r+0x990>
    380c:	d9000517 	ldw	r4,20(sp)
    3810:	00c00384 	movi	r3,14
    3814:	19008616 	blt	r3,r4,3a30 <_dtoa_r+0x990>
    3818:	200490fa 	slli	r2,r4,3
    381c:	00c00074 	movhi	r3,1
    3820:	d9802217 	ldw	r6,136(sp)
    3824:	18c60804 	addi	r3,r3,6176
    3828:	1885883a 	add	r2,r3,r2
    382c:	14000017 	ldw	r16,0(r2)
    3830:	14400117 	ldw	r17,4(r2)
    3834:	30016316 	blt	r6,zero,3dc4 <_dtoa_r+0xd24>
    3838:	800d883a 	mov	r6,r16
    383c:	880f883a 	mov	r7,r17
    3840:	9009883a 	mov	r4,r18
    3844:	980b883a 	mov	r5,r19
    3848:	000b4a00 	call	b4a0 <__divdf3>
    384c:	180b883a 	mov	r5,r3
    3850:	1009883a 	mov	r4,r2
    3854:	000cff40 	call	cff4 <__fixdfsi>
    3858:	1009883a 	mov	r4,r2
    385c:	102b883a 	mov	r21,r2
    3860:	000d0740 	call	d074 <__floatsidf>
    3864:	800d883a 	mov	r6,r16
    3868:	880f883a 	mov	r7,r17
    386c:	1009883a 	mov	r4,r2
    3870:	180b883a 	mov	r5,r3
    3874:	000bfe00 	call	bfe0 <__muldf3>
    3878:	100d883a 	mov	r6,r2
    387c:	180f883a 	mov	r7,r3
    3880:	9009883a 	mov	r4,r18
    3884:	980b883a 	mov	r5,r19
    3888:	000c6f80 	call	c6f8 <__subdf3>
    388c:	d9c00717 	ldw	r7,28(sp)
    3890:	1009883a 	mov	r4,r2
    3894:	a8800c04 	addi	r2,r21,48
    3898:	38800005 	stb	r2,0(r7)
    389c:	3dc00044 	addi	r23,r7,1
    38a0:	d9c00617 	ldw	r7,24(sp)
    38a4:	01800044 	movi	r6,1
    38a8:	180b883a 	mov	r5,r3
    38ac:	2005883a 	mov	r2,r4
    38b0:	39803826 	beq	r7,r6,3994 <_dtoa_r+0x8f4>
    38b4:	000d883a 	mov	r6,zero
    38b8:	01d00934 	movhi	r7,16420
    38bc:	000bfe00 	call	bfe0 <__muldf3>
    38c0:	000d883a 	mov	r6,zero
    38c4:	000f883a 	mov	r7,zero
    38c8:	1009883a 	mov	r4,r2
    38cc:	180b883a 	mov	r5,r3
    38d0:	1025883a 	mov	r18,r2
    38d4:	1827883a 	mov	r19,r3
    38d8:	000bd880 	call	bd88 <__eqdf2>
    38dc:	103f9a26 	beq	r2,zero,3748 <__alt_mem_VGA_Subsystem_Char_Buf_Subsystem_Onchip_SRAM+0xf7003748>
    38e0:	d9c00617 	ldw	r7,24(sp)
    38e4:	d8c00717 	ldw	r3,28(sp)
    38e8:	b829883a 	mov	r20,r23
    38ec:	38bfffc4 	addi	r2,r7,-1
    38f0:	18ad883a 	add	r22,r3,r2
    38f4:	00000a06 	br	3920 <_dtoa_r+0x880>
    38f8:	000bfe00 	call	bfe0 <__muldf3>
    38fc:	000d883a 	mov	r6,zero
    3900:	000f883a 	mov	r7,zero
    3904:	1009883a 	mov	r4,r2
    3908:	180b883a 	mov	r5,r3
    390c:	1025883a 	mov	r18,r2
    3910:	1827883a 	mov	r19,r3
    3914:	b829883a 	mov	r20,r23
    3918:	000bd880 	call	bd88 <__eqdf2>
    391c:	103f8a26 	beq	r2,zero,3748 <__alt_mem_VGA_Subsystem_Char_Buf_Subsystem_Onchip_SRAM+0xf7003748>
    3920:	800d883a 	mov	r6,r16
    3924:	880f883a 	mov	r7,r17
    3928:	9009883a 	mov	r4,r18
    392c:	980b883a 	mov	r5,r19
    3930:	000b4a00 	call	b4a0 <__divdf3>
    3934:	180b883a 	mov	r5,r3
    3938:	1009883a 	mov	r4,r2
    393c:	000cff40 	call	cff4 <__fixdfsi>
    3940:	1009883a 	mov	r4,r2
    3944:	102b883a 	mov	r21,r2
    3948:	000d0740 	call	d074 <__floatsidf>
    394c:	800d883a 	mov	r6,r16
    3950:	880f883a 	mov	r7,r17
    3954:	1009883a 	mov	r4,r2
    3958:	180b883a 	mov	r5,r3
    395c:	000bfe00 	call	bfe0 <__muldf3>
    3960:	100d883a 	mov	r6,r2
    3964:	180f883a 	mov	r7,r3
    3968:	9009883a 	mov	r4,r18
    396c:	980b883a 	mov	r5,r19
    3970:	000c6f80 	call	c6f8 <__subdf3>
    3974:	aa000c04 	addi	r8,r21,48
    3978:	a2000005 	stb	r8,0(r20)
    397c:	000d883a 	mov	r6,zero
    3980:	01d00934 	movhi	r7,16420
    3984:	1009883a 	mov	r4,r2
    3988:	180b883a 	mov	r5,r3
    398c:	a5c00044 	addi	r23,r20,1
    3990:	b53fd91e 	bne	r22,r20,38f8 <__alt_mem_VGA_Subsystem_Char_Buf_Subsystem_Onchip_SRAM+0xf70038f8>
    3994:	100d883a 	mov	r6,r2
    3998:	180f883a 	mov	r7,r3
    399c:	1009883a 	mov	r4,r2
    39a0:	180b883a 	mov	r5,r3
    39a4:	000abf40 	call	abf4 <__adddf3>
    39a8:	100d883a 	mov	r6,r2
    39ac:	180f883a 	mov	r7,r3
    39b0:	8009883a 	mov	r4,r16
    39b4:	880b883a 	mov	r5,r17
    39b8:	1027883a 	mov	r19,r2
    39bc:	1825883a 	mov	r18,r3
    39c0:	000beec0 	call	beec <__ledf2>
    39c4:	10000816 	blt	r2,zero,39e8 <_dtoa_r+0x948>
    39c8:	980d883a 	mov	r6,r19
    39cc:	900f883a 	mov	r7,r18
    39d0:	8009883a 	mov	r4,r16
    39d4:	880b883a 	mov	r5,r17
    39d8:	000bd880 	call	bd88 <__eqdf2>
    39dc:	103f5a1e 	bne	r2,zero,3748 <__alt_mem_VGA_Subsystem_Char_Buf_Subsystem_Onchip_SRAM+0xf7003748>
    39e0:	ad40004c 	andi	r21,r21,1
    39e4:	a83f5826 	beq	r21,zero,3748 <__alt_mem_VGA_Subsystem_Char_Buf_Subsystem_Onchip_SRAM+0xf7003748>
    39e8:	bd3fffc3 	ldbu	r20,-1(r23)
    39ec:	b8bfffc4 	addi	r2,r23,-1
    39f0:	1007883a 	mov	r3,r2
    39f4:	01400e44 	movi	r5,57
    39f8:	d9800717 	ldw	r6,28(sp)
    39fc:	00000506 	br	3a14 <_dtoa_r+0x974>
    3a00:	18ffffc4 	addi	r3,r3,-1
    3a04:	11824726 	beq	r2,r6,4324 <_dtoa_r+0x1284>
    3a08:	1d000003 	ldbu	r20,0(r3)
    3a0c:	102f883a 	mov	r23,r2
    3a10:	10bfffc4 	addi	r2,r2,-1
    3a14:	a1003fcc 	andi	r4,r20,255
    3a18:	2100201c 	xori	r4,r4,128
    3a1c:	213fe004 	addi	r4,r4,-128
    3a20:	217ff726 	beq	r4,r5,3a00 <__alt_mem_VGA_Subsystem_Char_Buf_Subsystem_Onchip_SRAM+0xf7003a00>
    3a24:	a2000044 	addi	r8,r20,1
    3a28:	12000005 	stb	r8,0(r2)
    3a2c:	003f4606 	br	3748 <__alt_mem_VGA_Subsystem_Char_Buf_Subsystem_Onchip_SRAM+0xf7003748>
    3a30:	d9000b17 	ldw	r4,44(sp)
    3a34:	2000c826 	beq	r4,zero,3d58 <_dtoa_r+0xcb8>
    3a38:	d9800317 	ldw	r6,12(sp)
    3a3c:	00c00044 	movi	r3,1
    3a40:	1980f90e 	bge	r3,r6,3e28 <_dtoa_r+0xd88>
    3a44:	d8800617 	ldw	r2,24(sp)
    3a48:	d8c00a17 	ldw	r3,40(sp)
    3a4c:	157fffc4 	addi	r21,r2,-1
    3a50:	1d41f316 	blt	r3,r21,4220 <_dtoa_r+0x1180>
    3a54:	1d6bc83a 	sub	r21,r3,r21
    3a58:	d9c00617 	ldw	r7,24(sp)
    3a5c:	3802aa16 	blt	r7,zero,4508 <_dtoa_r+0x1468>
    3a60:	dd000817 	ldw	r20,32(sp)
    3a64:	d8800617 	ldw	r2,24(sp)
    3a68:	d8c00817 	ldw	r3,32(sp)
    3a6c:	01400044 	movi	r5,1
    3a70:	e009883a 	mov	r4,fp
    3a74:	1887883a 	add	r3,r3,r2
    3a78:	d8c00815 	stw	r3,32(sp)
    3a7c:	b0ad883a 	add	r22,r22,r2
    3a80:	00065300 	call	6530 <__i2b>
    3a84:	1023883a 	mov	r17,r2
    3a88:	a0000826 	beq	r20,zero,3aac <_dtoa_r+0xa0c>
    3a8c:	0580070e 	bge	zero,r22,3aac <_dtoa_r+0xa0c>
    3a90:	a005883a 	mov	r2,r20
    3a94:	b500b916 	blt	r22,r20,3d7c <_dtoa_r+0xcdc>
    3a98:	d9000817 	ldw	r4,32(sp)
    3a9c:	a0a9c83a 	sub	r20,r20,r2
    3aa0:	b0adc83a 	sub	r22,r22,r2
    3aa4:	2089c83a 	sub	r4,r4,r2
    3aa8:	d9000815 	stw	r4,32(sp)
    3aac:	d9800a17 	ldw	r6,40(sp)
    3ab0:	0181810e 	bge	zero,r6,40b8 <_dtoa_r+0x1018>
    3ab4:	d9c00b17 	ldw	r7,44(sp)
    3ab8:	3800b326 	beq	r7,zero,3d88 <_dtoa_r+0xce8>
    3abc:	a800b226 	beq	r21,zero,3d88 <_dtoa_r+0xce8>
    3ac0:	880b883a 	mov	r5,r17
    3ac4:	a80d883a 	mov	r6,r21
    3ac8:	e009883a 	mov	r4,fp
    3acc:	00067640 	call	6764 <__pow5mult>
    3ad0:	d9800917 	ldw	r6,36(sp)
    3ad4:	100b883a 	mov	r5,r2
    3ad8:	e009883a 	mov	r4,fp
    3adc:	1023883a 	mov	r17,r2
    3ae0:	000656c0 	call	656c <__multiply>
    3ae4:	1021883a 	mov	r16,r2
    3ae8:	d8800a17 	ldw	r2,40(sp)
    3aec:	d9400917 	ldw	r5,36(sp)
    3af0:	e009883a 	mov	r4,fp
    3af4:	1545c83a 	sub	r2,r2,r21
    3af8:	d8800a15 	stw	r2,40(sp)
    3afc:	00061cc0 	call	61cc <_Bfree>
    3b00:	d8c00a17 	ldw	r3,40(sp)
    3b04:	18009f1e 	bne	r3,zero,3d84 <_dtoa_r+0xce4>
    3b08:	05c00044 	movi	r23,1
    3b0c:	e009883a 	mov	r4,fp
    3b10:	b80b883a 	mov	r5,r23
    3b14:	00065300 	call	6530 <__i2b>
    3b18:	d9000d17 	ldw	r4,52(sp)
    3b1c:	102b883a 	mov	r21,r2
    3b20:	2000ce26 	beq	r4,zero,3e5c <_dtoa_r+0xdbc>
    3b24:	200d883a 	mov	r6,r4
    3b28:	100b883a 	mov	r5,r2
    3b2c:	e009883a 	mov	r4,fp
    3b30:	00067640 	call	6764 <__pow5mult>
    3b34:	d9800317 	ldw	r6,12(sp)
    3b38:	102b883a 	mov	r21,r2
    3b3c:	b981810e 	bge	r23,r6,4144 <_dtoa_r+0x10a4>
    3b40:	0027883a 	mov	r19,zero
    3b44:	a8800417 	ldw	r2,16(r21)
    3b48:	05c00804 	movi	r23,32
    3b4c:	10800104 	addi	r2,r2,4
    3b50:	1085883a 	add	r2,r2,r2
    3b54:	1085883a 	add	r2,r2,r2
    3b58:	a885883a 	add	r2,r21,r2
    3b5c:	11000017 	ldw	r4,0(r2)
    3b60:	00064180 	call	6418 <__hi0bits>
    3b64:	b885c83a 	sub	r2,r23,r2
    3b68:	1585883a 	add	r2,r2,r22
    3b6c:	108007cc 	andi	r2,r2,31
    3b70:	1000b326 	beq	r2,zero,3e40 <_dtoa_r+0xda0>
    3b74:	00c00804 	movi	r3,32
    3b78:	1887c83a 	sub	r3,r3,r2
    3b7c:	01000104 	movi	r4,4
    3b80:	20c2cd0e 	bge	r4,r3,46b8 <_dtoa_r+0x1618>
    3b84:	00c00704 	movi	r3,28
    3b88:	1885c83a 	sub	r2,r3,r2
    3b8c:	d8c00817 	ldw	r3,32(sp)
    3b90:	a0a9883a 	add	r20,r20,r2
    3b94:	b0ad883a 	add	r22,r22,r2
    3b98:	1887883a 	add	r3,r3,r2
    3b9c:	d8c00815 	stw	r3,32(sp)
    3ba0:	d9800817 	ldw	r6,32(sp)
    3ba4:	0180040e 	bge	zero,r6,3bb8 <_dtoa_r+0xb18>
    3ba8:	800b883a 	mov	r5,r16
    3bac:	e009883a 	mov	r4,fp
    3bb0:	00068a40 	call	68a4 <__lshift>
    3bb4:	1021883a 	mov	r16,r2
    3bb8:	0580050e 	bge	zero,r22,3bd0 <_dtoa_r+0xb30>
    3bbc:	a80b883a 	mov	r5,r21
    3bc0:	b00d883a 	mov	r6,r22
    3bc4:	e009883a 	mov	r4,fp
    3bc8:	00068a40 	call	68a4 <__lshift>
    3bcc:	102b883a 	mov	r21,r2
    3bd0:	d9c00e17 	ldw	r7,56(sp)
    3bd4:	3801211e 	bne	r7,zero,405c <_dtoa_r+0xfbc>
    3bd8:	d9800617 	ldw	r6,24(sp)
    3bdc:	0181380e 	bge	zero,r6,40c0 <_dtoa_r+0x1020>
    3be0:	d8c00b17 	ldw	r3,44(sp)
    3be4:	1800ab1e 	bne	r3,zero,3e94 <_dtoa_r+0xdf4>
    3be8:	dc800717 	ldw	r18,28(sp)
    3bec:	dcc00617 	ldw	r19,24(sp)
    3bf0:	9029883a 	mov	r20,r18
    3bf4:	00000206 	br	3c00 <_dtoa_r+0xb60>
    3bf8:	00061f40 	call	61f4 <__multadd>
    3bfc:	1021883a 	mov	r16,r2
    3c00:	a80b883a 	mov	r5,r21
    3c04:	8009883a 	mov	r4,r16
    3c08:	0002ea00 	call	2ea0 <quorem>
    3c0c:	10800c04 	addi	r2,r2,48
    3c10:	90800005 	stb	r2,0(r18)
    3c14:	94800044 	addi	r18,r18,1
    3c18:	9507c83a 	sub	r3,r18,r20
    3c1c:	000f883a 	mov	r7,zero
    3c20:	01800284 	movi	r6,10
    3c24:	800b883a 	mov	r5,r16
    3c28:	e009883a 	mov	r4,fp
    3c2c:	1cfff216 	blt	r3,r19,3bf8 <__alt_mem_VGA_Subsystem_Char_Buf_Subsystem_Onchip_SRAM+0xf7003bf8>
    3c30:	1011883a 	mov	r8,r2
    3c34:	d8800617 	ldw	r2,24(sp)
    3c38:	0082370e 	bge	zero,r2,4518 <_dtoa_r+0x1478>
    3c3c:	d9000717 	ldw	r4,28(sp)
    3c40:	0025883a 	mov	r18,zero
    3c44:	20af883a 	add	r23,r4,r2
    3c48:	01800044 	movi	r6,1
    3c4c:	800b883a 	mov	r5,r16
    3c50:	e009883a 	mov	r4,fp
    3c54:	da001715 	stw	r8,92(sp)
    3c58:	00068a40 	call	68a4 <__lshift>
    3c5c:	a80b883a 	mov	r5,r21
    3c60:	1009883a 	mov	r4,r2
    3c64:	d8800915 	stw	r2,36(sp)
    3c68:	00069ec0 	call	69ec <__mcmp>
    3c6c:	da001717 	ldw	r8,92(sp)
    3c70:	0081800e 	bge	zero,r2,4274 <_dtoa_r+0x11d4>
    3c74:	b93fffc3 	ldbu	r4,-1(r23)
    3c78:	b8bfffc4 	addi	r2,r23,-1
    3c7c:	1007883a 	mov	r3,r2
    3c80:	01800e44 	movi	r6,57
    3c84:	d9c00717 	ldw	r7,28(sp)
    3c88:	00000506 	br	3ca0 <_dtoa_r+0xc00>
    3c8c:	18ffffc4 	addi	r3,r3,-1
    3c90:	11c12326 	beq	r2,r7,4120 <_dtoa_r+0x1080>
    3c94:	19000003 	ldbu	r4,0(r3)
    3c98:	102f883a 	mov	r23,r2
    3c9c:	10bfffc4 	addi	r2,r2,-1
    3ca0:	21403fcc 	andi	r5,r4,255
    3ca4:	2940201c 	xori	r5,r5,128
    3ca8:	297fe004 	addi	r5,r5,-128
    3cac:	29bff726 	beq	r5,r6,3c8c <__alt_mem_VGA_Subsystem_Char_Buf_Subsystem_Onchip_SRAM+0xf7003c8c>
    3cb0:	21000044 	addi	r4,r4,1
    3cb4:	11000005 	stb	r4,0(r2)
    3cb8:	a80b883a 	mov	r5,r21
    3cbc:	e009883a 	mov	r4,fp
    3cc0:	00061cc0 	call	61cc <_Bfree>
    3cc4:	883ea026 	beq	r17,zero,3748 <__alt_mem_VGA_Subsystem_Char_Buf_Subsystem_Onchip_SRAM+0xf7003748>
    3cc8:	90000426 	beq	r18,zero,3cdc <_dtoa_r+0xc3c>
    3ccc:	94400326 	beq	r18,r17,3cdc <_dtoa_r+0xc3c>
    3cd0:	900b883a 	mov	r5,r18
    3cd4:	e009883a 	mov	r4,fp
    3cd8:	00061cc0 	call	61cc <_Bfree>
    3cdc:	880b883a 	mov	r5,r17
    3ce0:	e009883a 	mov	r4,fp
    3ce4:	00061cc0 	call	61cc <_Bfree>
    3ce8:	003e9706 	br	3748 <__alt_mem_VGA_Subsystem_Char_Buf_Subsystem_Onchip_SRAM+0xf7003748>
    3cec:	01800044 	movi	r6,1
    3cf0:	d9800e15 	stw	r6,56(sp)
    3cf4:	003d9606 	br	3350 <__alt_mem_VGA_Subsystem_Char_Buf_Subsystem_Onchip_SRAM+0xf7003350>
    3cf8:	d8800817 	ldw	r2,32(sp)
    3cfc:	d8c00517 	ldw	r3,20(sp)
    3d00:	d8000d15 	stw	zero,52(sp)
    3d04:	10c5c83a 	sub	r2,r2,r3
    3d08:	00c9c83a 	sub	r4,zero,r3
    3d0c:	d8800815 	stw	r2,32(sp)
    3d10:	d9000a15 	stw	r4,40(sp)
    3d14:	003d9706 	br	3374 <__alt_mem_VGA_Subsystem_Char_Buf_Subsystem_Onchip_SRAM+0xf7003374>
    3d18:	05adc83a 	sub	r22,zero,r22
    3d1c:	dd800815 	stw	r22,32(sp)
    3d20:	002d883a 	mov	r22,zero
    3d24:	003d8e06 	br	3360 <__alt_mem_VGA_Subsystem_Char_Buf_Subsystem_Onchip_SRAM+0xf7003360>
    3d28:	d9000517 	ldw	r4,20(sp)
    3d2c:	000d0740 	call	d074 <__floatsidf>
    3d30:	100d883a 	mov	r6,r2
    3d34:	180f883a 	mov	r7,r3
    3d38:	a009883a 	mov	r4,r20
    3d3c:	880b883a 	mov	r5,r17
    3d40:	000bd880 	call	bd88 <__eqdf2>
    3d44:	103d7126 	beq	r2,zero,330c <__alt_mem_VGA_Subsystem_Char_Buf_Subsystem_Onchip_SRAM+0xf700330c>
    3d48:	d9c00517 	ldw	r7,20(sp)
    3d4c:	39ffffc4 	addi	r7,r7,-1
    3d50:	d9c00515 	stw	r7,20(sp)
    3d54:	003d6d06 	br	330c <__alt_mem_VGA_Subsystem_Char_Buf_Subsystem_Onchip_SRAM+0xf700330c>
    3d58:	dd400a17 	ldw	r21,40(sp)
    3d5c:	dd000817 	ldw	r20,32(sp)
    3d60:	0023883a 	mov	r17,zero
    3d64:	003f4806 	br	3a88 <__alt_mem_VGA_Subsystem_Char_Buf_Subsystem_Onchip_SRAM+0xf7003a88>
    3d68:	10e3c83a 	sub	r17,r2,r3
    3d6c:	9448983a 	sll	r4,r18,r17
    3d70:	003d3206 	br	323c <__alt_mem_VGA_Subsystem_Char_Buf_Subsystem_Onchip_SRAM+0xf700323c>
    3d74:	d8000e15 	stw	zero,56(sp)
    3d78:	003d7506 	br	3350 <__alt_mem_VGA_Subsystem_Char_Buf_Subsystem_Onchip_SRAM+0xf7003350>
    3d7c:	b005883a 	mov	r2,r22
    3d80:	003f4506 	br	3a98 <__alt_mem_VGA_Subsystem_Char_Buf_Subsystem_Onchip_SRAM+0xf7003a98>
    3d84:	dc000915 	stw	r16,36(sp)
    3d88:	d9800a17 	ldw	r6,40(sp)
    3d8c:	d9400917 	ldw	r5,36(sp)
    3d90:	e009883a 	mov	r4,fp
    3d94:	00067640 	call	6764 <__pow5mult>
    3d98:	1021883a 	mov	r16,r2
    3d9c:	003f5a06 	br	3b08 <__alt_mem_VGA_Subsystem_Char_Buf_Subsystem_Onchip_SRAM+0xf7003b08>
    3da0:	01c00044 	movi	r7,1
    3da4:	d9c00b15 	stw	r7,44(sp)
    3da8:	d8802217 	ldw	r2,136(sp)
    3dac:	0081280e 	bge	zero,r2,4250 <_dtoa_r+0x11b0>
    3db0:	100d883a 	mov	r6,r2
    3db4:	1021883a 	mov	r16,r2
    3db8:	d8800c15 	stw	r2,48(sp)
    3dbc:	d8800615 	stw	r2,24(sp)
    3dc0:	003d8806 	br	33e4 <__alt_mem_VGA_Subsystem_Char_Buf_Subsystem_Onchip_SRAM+0xf70033e4>
    3dc4:	d8800617 	ldw	r2,24(sp)
    3dc8:	00be9b16 	blt	zero,r2,3838 <__alt_mem_VGA_Subsystem_Char_Buf_Subsystem_Onchip_SRAM+0xf7003838>
    3dcc:	10010f1e 	bne	r2,zero,420c <_dtoa_r+0x116c>
    3dd0:	880b883a 	mov	r5,r17
    3dd4:	000d883a 	mov	r6,zero
    3dd8:	01d00534 	movhi	r7,16404
    3ddc:	8009883a 	mov	r4,r16
    3de0:	000bfe00 	call	bfe0 <__muldf3>
    3de4:	900d883a 	mov	r6,r18
    3de8:	980f883a 	mov	r7,r19
    3dec:	1009883a 	mov	r4,r2
    3df0:	180b883a 	mov	r5,r3
    3df4:	000be100 	call	be10 <__gedf2>
    3df8:	002b883a 	mov	r21,zero
    3dfc:	0023883a 	mov	r17,zero
    3e00:	1000bf16 	blt	r2,zero,4100 <_dtoa_r+0x1060>
    3e04:	d9802217 	ldw	r6,136(sp)
    3e08:	ddc00717 	ldw	r23,28(sp)
    3e0c:	018c303a 	nor	r6,zero,r6
    3e10:	d9800515 	stw	r6,20(sp)
    3e14:	a80b883a 	mov	r5,r21
    3e18:	e009883a 	mov	r4,fp
    3e1c:	00061cc0 	call	61cc <_Bfree>
    3e20:	883e4926 	beq	r17,zero,3748 <__alt_mem_VGA_Subsystem_Char_Buf_Subsystem_Onchip_SRAM+0xf7003748>
    3e24:	003fad06 	br	3cdc <__alt_mem_VGA_Subsystem_Char_Buf_Subsystem_Onchip_SRAM+0xf7003cdc>
    3e28:	d9c01117 	ldw	r7,68(sp)
    3e2c:	3801bc26 	beq	r7,zero,4520 <_dtoa_r+0x1480>
    3e30:	10810cc4 	addi	r2,r2,1075
    3e34:	dd400a17 	ldw	r21,40(sp)
    3e38:	dd000817 	ldw	r20,32(sp)
    3e3c:	003f0a06 	br	3a68 <__alt_mem_VGA_Subsystem_Char_Buf_Subsystem_Onchip_SRAM+0xf7003a68>
    3e40:	00800704 	movi	r2,28
    3e44:	d9000817 	ldw	r4,32(sp)
    3e48:	a0a9883a 	add	r20,r20,r2
    3e4c:	b0ad883a 	add	r22,r22,r2
    3e50:	2089883a 	add	r4,r4,r2
    3e54:	d9000815 	stw	r4,32(sp)
    3e58:	003f5106 	br	3ba0 <__alt_mem_VGA_Subsystem_Char_Buf_Subsystem_Onchip_SRAM+0xf7003ba0>
    3e5c:	d8c00317 	ldw	r3,12(sp)
    3e60:	b8c1fc0e 	bge	r23,r3,4654 <_dtoa_r+0x15b4>
    3e64:	0027883a 	mov	r19,zero
    3e68:	b805883a 	mov	r2,r23
    3e6c:	003f3e06 	br	3b68 <__alt_mem_VGA_Subsystem_Char_Buf_Subsystem_Onchip_SRAM+0xf7003b68>
    3e70:	880b883a 	mov	r5,r17
    3e74:	e009883a 	mov	r4,fp
    3e78:	000f883a 	mov	r7,zero
    3e7c:	01800284 	movi	r6,10
    3e80:	00061f40 	call	61f4 <__multadd>
    3e84:	d9000c17 	ldw	r4,48(sp)
    3e88:	1023883a 	mov	r17,r2
    3e8c:	0102040e 	bge	zero,r4,46a0 <_dtoa_r+0x1600>
    3e90:	d9000615 	stw	r4,24(sp)
    3e94:	0500050e 	bge	zero,r20,3eac <_dtoa_r+0xe0c>
    3e98:	880b883a 	mov	r5,r17
    3e9c:	a00d883a 	mov	r6,r20
    3ea0:	e009883a 	mov	r4,fp
    3ea4:	00068a40 	call	68a4 <__lshift>
    3ea8:	1023883a 	mov	r17,r2
    3eac:	9801241e 	bne	r19,zero,4340 <_dtoa_r+0x12a0>
    3eb0:	8829883a 	mov	r20,r17
    3eb4:	d9000617 	ldw	r4,24(sp)
    3eb8:	dcc00717 	ldw	r19,28(sp)
    3ebc:	9480004c 	andi	r18,r18,1
    3ec0:	20bfffc4 	addi	r2,r4,-1
    3ec4:	9885883a 	add	r2,r19,r2
    3ec8:	d8800415 	stw	r2,16(sp)
    3ecc:	dc800615 	stw	r18,24(sp)
    3ed0:	a80b883a 	mov	r5,r21
    3ed4:	8009883a 	mov	r4,r16
    3ed8:	0002ea00 	call	2ea0 <quorem>
    3edc:	880b883a 	mov	r5,r17
    3ee0:	8009883a 	mov	r4,r16
    3ee4:	102f883a 	mov	r23,r2
    3ee8:	00069ec0 	call	69ec <__mcmp>
    3eec:	a80b883a 	mov	r5,r21
    3ef0:	a00d883a 	mov	r6,r20
    3ef4:	e009883a 	mov	r4,fp
    3ef8:	102d883a 	mov	r22,r2
    3efc:	0006a4c0 	call	6a4c <__mdiff>
    3f00:	1007883a 	mov	r3,r2
    3f04:	10800317 	ldw	r2,12(r2)
    3f08:	bc800c04 	addi	r18,r23,48
    3f0c:	180b883a 	mov	r5,r3
    3f10:	10004e1e 	bne	r2,zero,404c <_dtoa_r+0xfac>
    3f14:	8009883a 	mov	r4,r16
    3f18:	d8c01615 	stw	r3,88(sp)
    3f1c:	00069ec0 	call	69ec <__mcmp>
    3f20:	d8c01617 	ldw	r3,88(sp)
    3f24:	e009883a 	mov	r4,fp
    3f28:	d8801615 	stw	r2,88(sp)
    3f2c:	180b883a 	mov	r5,r3
    3f30:	00061cc0 	call	61cc <_Bfree>
    3f34:	d8801617 	ldw	r2,88(sp)
    3f38:	1000041e 	bne	r2,zero,3f4c <_dtoa_r+0xeac>
    3f3c:	d9800317 	ldw	r6,12(sp)
    3f40:	3000021e 	bne	r6,zero,3f4c <_dtoa_r+0xeac>
    3f44:	d8c00617 	ldw	r3,24(sp)
    3f48:	18003726 	beq	r3,zero,4028 <_dtoa_r+0xf88>
    3f4c:	b0002016 	blt	r22,zero,3fd0 <_dtoa_r+0xf30>
    3f50:	b000041e 	bne	r22,zero,3f64 <_dtoa_r+0xec4>
    3f54:	d9000317 	ldw	r4,12(sp)
    3f58:	2000021e 	bne	r4,zero,3f64 <_dtoa_r+0xec4>
    3f5c:	d8c00617 	ldw	r3,24(sp)
    3f60:	18001b26 	beq	r3,zero,3fd0 <_dtoa_r+0xf30>
    3f64:	00810716 	blt	zero,r2,4384 <_dtoa_r+0x12e4>
    3f68:	d8c00417 	ldw	r3,16(sp)
    3f6c:	9d800044 	addi	r22,r19,1
    3f70:	9c800005 	stb	r18,0(r19)
    3f74:	b02f883a 	mov	r23,r22
    3f78:	98c10626 	beq	r19,r3,4394 <_dtoa_r+0x12f4>
    3f7c:	800b883a 	mov	r5,r16
    3f80:	000f883a 	mov	r7,zero
    3f84:	01800284 	movi	r6,10
    3f88:	e009883a 	mov	r4,fp
    3f8c:	00061f40 	call	61f4 <__multadd>
    3f90:	1021883a 	mov	r16,r2
    3f94:	000f883a 	mov	r7,zero
    3f98:	01800284 	movi	r6,10
    3f9c:	880b883a 	mov	r5,r17
    3fa0:	e009883a 	mov	r4,fp
    3fa4:	8d002526 	beq	r17,r20,403c <_dtoa_r+0xf9c>
    3fa8:	00061f40 	call	61f4 <__multadd>
    3fac:	a00b883a 	mov	r5,r20
    3fb0:	000f883a 	mov	r7,zero
    3fb4:	01800284 	movi	r6,10
    3fb8:	e009883a 	mov	r4,fp
    3fbc:	1023883a 	mov	r17,r2
    3fc0:	00061f40 	call	61f4 <__multadd>
    3fc4:	1029883a 	mov	r20,r2
    3fc8:	b027883a 	mov	r19,r22
    3fcc:	003fc006 	br	3ed0 <__alt_mem_VGA_Subsystem_Char_Buf_Subsystem_Onchip_SRAM+0xf7003ed0>
    3fd0:	9011883a 	mov	r8,r18
    3fd4:	00800e0e 	bge	zero,r2,4010 <_dtoa_r+0xf70>
    3fd8:	800b883a 	mov	r5,r16
    3fdc:	01800044 	movi	r6,1
    3fe0:	e009883a 	mov	r4,fp
    3fe4:	da001715 	stw	r8,92(sp)
    3fe8:	00068a40 	call	68a4 <__lshift>
    3fec:	a80b883a 	mov	r5,r21
    3ff0:	1009883a 	mov	r4,r2
    3ff4:	1021883a 	mov	r16,r2
    3ff8:	00069ec0 	call	69ec <__mcmp>
    3ffc:	da001717 	ldw	r8,92(sp)
    4000:	0081960e 	bge	zero,r2,465c <_dtoa_r+0x15bc>
    4004:	00800e44 	movi	r2,57
    4008:	40817026 	beq	r8,r2,45cc <_dtoa_r+0x152c>
    400c:	ba000c44 	addi	r8,r23,49
    4010:	8825883a 	mov	r18,r17
    4014:	9dc00044 	addi	r23,r19,1
    4018:	9a000005 	stb	r8,0(r19)
    401c:	a023883a 	mov	r17,r20
    4020:	dc000915 	stw	r16,36(sp)
    4024:	003f2406 	br	3cb8 <__alt_mem_VGA_Subsystem_Char_Buf_Subsystem_Onchip_SRAM+0xf7003cb8>
    4028:	00800e44 	movi	r2,57
    402c:	9011883a 	mov	r8,r18
    4030:	90816626 	beq	r18,r2,45cc <_dtoa_r+0x152c>
    4034:	05bff516 	blt	zero,r22,400c <__alt_mem_VGA_Subsystem_Char_Buf_Subsystem_Onchip_SRAM+0xf700400c>
    4038:	003ff506 	br	4010 <__alt_mem_VGA_Subsystem_Char_Buf_Subsystem_Onchip_SRAM+0xf7004010>
    403c:	00061f40 	call	61f4 <__multadd>
    4040:	1023883a 	mov	r17,r2
    4044:	1029883a 	mov	r20,r2
    4048:	003fdf06 	br	3fc8 <__alt_mem_VGA_Subsystem_Char_Buf_Subsystem_Onchip_SRAM+0xf7003fc8>
    404c:	e009883a 	mov	r4,fp
    4050:	00061cc0 	call	61cc <_Bfree>
    4054:	00800044 	movi	r2,1
    4058:	003fbc06 	br	3f4c <__alt_mem_VGA_Subsystem_Char_Buf_Subsystem_Onchip_SRAM+0xf7003f4c>
    405c:	a80b883a 	mov	r5,r21
    4060:	8009883a 	mov	r4,r16
    4064:	00069ec0 	call	69ec <__mcmp>
    4068:	103edb0e 	bge	r2,zero,3bd8 <__alt_mem_VGA_Subsystem_Char_Buf_Subsystem_Onchip_SRAM+0xf7003bd8>
    406c:	800b883a 	mov	r5,r16
    4070:	000f883a 	mov	r7,zero
    4074:	01800284 	movi	r6,10
    4078:	e009883a 	mov	r4,fp
    407c:	00061f40 	call	61f4 <__multadd>
    4080:	1021883a 	mov	r16,r2
    4084:	d8800517 	ldw	r2,20(sp)
    4088:	d8c00b17 	ldw	r3,44(sp)
    408c:	10bfffc4 	addi	r2,r2,-1
    4090:	d8800515 	stw	r2,20(sp)
    4094:	183f761e 	bne	r3,zero,3e70 <__alt_mem_VGA_Subsystem_Char_Buf_Subsystem_Onchip_SRAM+0xf7003e70>
    4098:	d9000c17 	ldw	r4,48(sp)
    409c:	0101730e 	bge	zero,r4,466c <_dtoa_r+0x15cc>
    40a0:	d9000615 	stw	r4,24(sp)
    40a4:	003ed006 	br	3be8 <__alt_mem_VGA_Subsystem_Char_Buf_Subsystem_Onchip_SRAM+0xf7003be8>
    40a8:	00800084 	movi	r2,2
    40ac:	3081861e 	bne	r6,r2,46c8 <_dtoa_r+0x1628>
    40b0:	d8000b15 	stw	zero,44(sp)
    40b4:	003f3c06 	br	3da8 <__alt_mem_VGA_Subsystem_Char_Buf_Subsystem_Onchip_SRAM+0xf7003da8>
    40b8:	dc000917 	ldw	r16,36(sp)
    40bc:	003e9206 	br	3b08 <__alt_mem_VGA_Subsystem_Char_Buf_Subsystem_Onchip_SRAM+0xf7003b08>
    40c0:	d9c00317 	ldw	r7,12(sp)
    40c4:	00800084 	movi	r2,2
    40c8:	11fec50e 	bge	r2,r7,3be0 <__alt_mem_VGA_Subsystem_Char_Buf_Subsystem_Onchip_SRAM+0xf7003be0>
    40cc:	d9000617 	ldw	r4,24(sp)
    40d0:	20013c1e 	bne	r4,zero,45c4 <_dtoa_r+0x1524>
    40d4:	a80b883a 	mov	r5,r21
    40d8:	000f883a 	mov	r7,zero
    40dc:	01800144 	movi	r6,5
    40e0:	e009883a 	mov	r4,fp
    40e4:	00061f40 	call	61f4 <__multadd>
    40e8:	100b883a 	mov	r5,r2
    40ec:	8009883a 	mov	r4,r16
    40f0:	102b883a 	mov	r21,r2
    40f4:	00069ec0 	call	69ec <__mcmp>
    40f8:	dc000915 	stw	r16,36(sp)
    40fc:	00bf410e 	bge	zero,r2,3e04 <__alt_mem_VGA_Subsystem_Char_Buf_Subsystem_Onchip_SRAM+0xf7003e04>
    4100:	d9c00717 	ldw	r7,28(sp)
    4104:	00800c44 	movi	r2,49
    4108:	38800005 	stb	r2,0(r7)
    410c:	d8800517 	ldw	r2,20(sp)
    4110:	3dc00044 	addi	r23,r7,1
    4114:	10800044 	addi	r2,r2,1
    4118:	d8800515 	stw	r2,20(sp)
    411c:	003f3d06 	br	3e14 <__alt_mem_VGA_Subsystem_Char_Buf_Subsystem_Onchip_SRAM+0xf7003e14>
    4120:	d9800517 	ldw	r6,20(sp)
    4124:	d9c00717 	ldw	r7,28(sp)
    4128:	00800c44 	movi	r2,49
    412c:	31800044 	addi	r6,r6,1
    4130:	d9800515 	stw	r6,20(sp)
    4134:	38800005 	stb	r2,0(r7)
    4138:	003edf06 	br	3cb8 <__alt_mem_VGA_Subsystem_Char_Buf_Subsystem_Onchip_SRAM+0xf7003cb8>
    413c:	d8000b15 	stw	zero,44(sp)
    4140:	003c9f06 	br	33c0 <__alt_mem_VGA_Subsystem_Char_Buf_Subsystem_Onchip_SRAM+0xf70033c0>
    4144:	903e7e1e 	bne	r18,zero,3b40 <__alt_mem_VGA_Subsystem_Char_Buf_Subsystem_Onchip_SRAM+0xf7003b40>
    4148:	00800434 	movhi	r2,16
    414c:	10bfffc4 	addi	r2,r2,-1
    4150:	9884703a 	and	r2,r19,r2
    4154:	1000ea1e 	bne	r2,zero,4500 <_dtoa_r+0x1460>
    4158:	9cdffc2c 	andhi	r19,r19,32752
    415c:	9800e826 	beq	r19,zero,4500 <_dtoa_r+0x1460>
    4160:	d9c00817 	ldw	r7,32(sp)
    4164:	b5800044 	addi	r22,r22,1
    4168:	04c00044 	movi	r19,1
    416c:	39c00044 	addi	r7,r7,1
    4170:	d9c00815 	stw	r7,32(sp)
    4174:	d8800d17 	ldw	r2,52(sp)
    4178:	103e721e 	bne	r2,zero,3b44 <__alt_mem_VGA_Subsystem_Char_Buf_Subsystem_Onchip_SRAM+0xf7003b44>
    417c:	00800044 	movi	r2,1
    4180:	003e7906 	br	3b68 <__alt_mem_VGA_Subsystem_Char_Buf_Subsystem_Onchip_SRAM+0xf7003b68>
    4184:	8009883a 	mov	r4,r16
    4188:	000d0740 	call	d074 <__floatsidf>
    418c:	d9800f17 	ldw	r6,60(sp)
    4190:	d9c01017 	ldw	r7,64(sp)
    4194:	1009883a 	mov	r4,r2
    4198:	180b883a 	mov	r5,r3
    419c:	000bfe00 	call	bfe0 <__muldf3>
    41a0:	000d883a 	mov	r6,zero
    41a4:	01d00734 	movhi	r7,16412
    41a8:	1009883a 	mov	r4,r2
    41ac:	180b883a 	mov	r5,r3
    41b0:	000abf40 	call	abf4 <__adddf3>
    41b4:	047f3034 	movhi	r17,64704
    41b8:	1021883a 	mov	r16,r2
    41bc:	1c63883a 	add	r17,r3,r17
    41c0:	d9000f17 	ldw	r4,60(sp)
    41c4:	d9401017 	ldw	r5,64(sp)
    41c8:	000d883a 	mov	r6,zero
    41cc:	01d00534 	movhi	r7,16404
    41d0:	000c6f80 	call	c6f8 <__subdf3>
    41d4:	800d883a 	mov	r6,r16
    41d8:	880f883a 	mov	r7,r17
    41dc:	1009883a 	mov	r4,r2
    41e0:	180b883a 	mov	r5,r3
    41e4:	102b883a 	mov	r21,r2
    41e8:	1829883a 	mov	r20,r3
    41ec:	000be100 	call	be10 <__gedf2>
    41f0:	00806c16 	blt	zero,r2,43a4 <_dtoa_r+0x1304>
    41f4:	89e0003c 	xorhi	r7,r17,32768
    41f8:	800d883a 	mov	r6,r16
    41fc:	a809883a 	mov	r4,r21
    4200:	a00b883a 	mov	r5,r20
    4204:	000beec0 	call	beec <__ledf2>
    4208:	103d7e0e 	bge	r2,zero,3804 <__alt_mem_VGA_Subsystem_Char_Buf_Subsystem_Onchip_SRAM+0xf7003804>
    420c:	002b883a 	mov	r21,zero
    4210:	0023883a 	mov	r17,zero
    4214:	003efb06 	br	3e04 <__alt_mem_VGA_Subsystem_Char_Buf_Subsystem_Onchip_SRAM+0xf7003e04>
    4218:	d8800717 	ldw	r2,28(sp)
    421c:	003bd006 	br	3160 <__alt_mem_VGA_Subsystem_Char_Buf_Subsystem_Onchip_SRAM+0xf7003160>
    4220:	d9000a17 	ldw	r4,40(sp)
    4224:	d9800d17 	ldw	r6,52(sp)
    4228:	dd400a15 	stw	r21,40(sp)
    422c:	a905c83a 	sub	r2,r21,r4
    4230:	308d883a 	add	r6,r6,r2
    4234:	d9800d15 	stw	r6,52(sp)
    4238:	002b883a 	mov	r21,zero
    423c:	003e0606 	br	3a58 <__alt_mem_VGA_Subsystem_Char_Buf_Subsystem_Onchip_SRAM+0xf7003a58>
    4240:	9023883a 	mov	r17,r18
    4244:	9829883a 	mov	r20,r19
    4248:	04000084 	movi	r16,2
    424c:	003c9206 	br	3498 <__alt_mem_VGA_Subsystem_Char_Buf_Subsystem_Onchip_SRAM+0xf7003498>
    4250:	04000044 	movi	r16,1
    4254:	dc000c15 	stw	r16,48(sp)
    4258:	dc000615 	stw	r16,24(sp)
    425c:	dc002215 	stw	r16,136(sp)
    4260:	e0001115 	stw	zero,68(fp)
    4264:	000b883a 	mov	r5,zero
    4268:	003c6906 	br	3410 <__alt_mem_VGA_Subsystem_Char_Buf_Subsystem_Onchip_SRAM+0xf7003410>
    426c:	3021883a 	mov	r16,r6
    4270:	003ffb06 	br	4260 <__alt_mem_VGA_Subsystem_Char_Buf_Subsystem_Onchip_SRAM+0xf7004260>
    4274:	1000021e 	bne	r2,zero,4280 <_dtoa_r+0x11e0>
    4278:	4200004c 	andi	r8,r8,1
    427c:	403e7d1e 	bne	r8,zero,3c74 <__alt_mem_VGA_Subsystem_Char_Buf_Subsystem_Onchip_SRAM+0xf7003c74>
    4280:	01000c04 	movi	r4,48
    4284:	00000106 	br	428c <_dtoa_r+0x11ec>
    4288:	102f883a 	mov	r23,r2
    428c:	b8bfffc4 	addi	r2,r23,-1
    4290:	10c00007 	ldb	r3,0(r2)
    4294:	193ffc26 	beq	r3,r4,4288 <__alt_mem_VGA_Subsystem_Char_Buf_Subsystem_Onchip_SRAM+0xf7004288>
    4298:	003e8706 	br	3cb8 <__alt_mem_VGA_Subsystem_Char_Buf_Subsystem_Onchip_SRAM+0xf7003cb8>
    429c:	d8800517 	ldw	r2,20(sp)
    42a0:	00a3c83a 	sub	r17,zero,r2
    42a4:	8800a426 	beq	r17,zero,4538 <_dtoa_r+0x1498>
    42a8:	888003cc 	andi	r2,r17,15
    42ac:	100490fa 	slli	r2,r2,3
    42b0:	00c00074 	movhi	r3,1
    42b4:	18c60804 	addi	r3,r3,6176
    42b8:	1885883a 	add	r2,r3,r2
    42bc:	11800017 	ldw	r6,0(r2)
    42c0:	11c00117 	ldw	r7,4(r2)
    42c4:	9009883a 	mov	r4,r18
    42c8:	980b883a 	mov	r5,r19
    42cc:	8823d13a 	srai	r17,r17,4
    42d0:	000bfe00 	call	bfe0 <__muldf3>
    42d4:	d8800f15 	stw	r2,60(sp)
    42d8:	d8c01015 	stw	r3,64(sp)
    42dc:	8800e826 	beq	r17,zero,4680 <_dtoa_r+0x15e0>
    42e0:	05000074 	movhi	r20,1
    42e4:	a505fe04 	addi	r20,r20,6136
    42e8:	04000084 	movi	r16,2
    42ec:	8980004c 	andi	r6,r17,1
    42f0:	1009883a 	mov	r4,r2
    42f4:	8823d07a 	srai	r17,r17,1
    42f8:	180b883a 	mov	r5,r3
    42fc:	30000426 	beq	r6,zero,4310 <_dtoa_r+0x1270>
    4300:	a1800017 	ldw	r6,0(r20)
    4304:	a1c00117 	ldw	r7,4(r20)
    4308:	84000044 	addi	r16,r16,1
    430c:	000bfe00 	call	bfe0 <__muldf3>
    4310:	a5000204 	addi	r20,r20,8
    4314:	883ff51e 	bne	r17,zero,42ec <__alt_mem_VGA_Subsystem_Char_Buf_Subsystem_Onchip_SRAM+0xf70042ec>
    4318:	d8800f15 	stw	r2,60(sp)
    431c:	d8c01015 	stw	r3,64(sp)
    4320:	003c7606 	br	34fc <__alt_mem_VGA_Subsystem_Char_Buf_Subsystem_Onchip_SRAM+0xf70034fc>
    4324:	00c00c04 	movi	r3,48
    4328:	10c00005 	stb	r3,0(r2)
    432c:	d8c00517 	ldw	r3,20(sp)
    4330:	bd3fffc3 	ldbu	r20,-1(r23)
    4334:	18c00044 	addi	r3,r3,1
    4338:	d8c00515 	stw	r3,20(sp)
    433c:	003db906 	br	3a24 <__alt_mem_VGA_Subsystem_Char_Buf_Subsystem_Onchip_SRAM+0xf7003a24>
    4340:	89400117 	ldw	r5,4(r17)
    4344:	e009883a 	mov	r4,fp
    4348:	00061240 	call	6124 <_Balloc>
    434c:	89800417 	ldw	r6,16(r17)
    4350:	89400304 	addi	r5,r17,12
    4354:	11000304 	addi	r4,r2,12
    4358:	31800084 	addi	r6,r6,2
    435c:	318d883a 	add	r6,r6,r6
    4360:	318d883a 	add	r6,r6,r6
    4364:	1027883a 	mov	r19,r2
    4368:	0005eb40 	call	5eb4 <memcpy>
    436c:	01800044 	movi	r6,1
    4370:	980b883a 	mov	r5,r19
    4374:	e009883a 	mov	r4,fp
    4378:	00068a40 	call	68a4 <__lshift>
    437c:	1029883a 	mov	r20,r2
    4380:	003ecc06 	br	3eb4 <__alt_mem_VGA_Subsystem_Char_Buf_Subsystem_Onchip_SRAM+0xf7003eb4>
    4384:	00800e44 	movi	r2,57
    4388:	90809026 	beq	r18,r2,45cc <_dtoa_r+0x152c>
    438c:	92000044 	addi	r8,r18,1
    4390:	003f1f06 	br	4010 <__alt_mem_VGA_Subsystem_Char_Buf_Subsystem_Onchip_SRAM+0xf7004010>
    4394:	9011883a 	mov	r8,r18
    4398:	8825883a 	mov	r18,r17
    439c:	a023883a 	mov	r17,r20
    43a0:	003e2906 	br	3c48 <__alt_mem_VGA_Subsystem_Char_Buf_Subsystem_Onchip_SRAM+0xf7003c48>
    43a4:	002b883a 	mov	r21,zero
    43a8:	0023883a 	mov	r17,zero
    43ac:	003f5406 	br	4100 <__alt_mem_VGA_Subsystem_Char_Buf_Subsystem_Onchip_SRAM+0xf7004100>
    43b0:	61bfffc4 	addi	r6,r12,-1
    43b4:	300490fa 	slli	r2,r6,3
    43b8:	00c00074 	movhi	r3,1
    43bc:	18c60804 	addi	r3,r3,6176
    43c0:	1885883a 	add	r2,r3,r2
    43c4:	11000017 	ldw	r4,0(r2)
    43c8:	11400117 	ldw	r5,4(r2)
    43cc:	d8800717 	ldw	r2,28(sp)
    43d0:	880f883a 	mov	r7,r17
    43d4:	d9801215 	stw	r6,72(sp)
    43d8:	800d883a 	mov	r6,r16
    43dc:	db001615 	stw	r12,88(sp)
    43e0:	15c00044 	addi	r23,r2,1
    43e4:	000bfe00 	call	bfe0 <__muldf3>
    43e8:	d9401017 	ldw	r5,64(sp)
    43ec:	d9000f17 	ldw	r4,60(sp)
    43f0:	d8c01515 	stw	r3,84(sp)
    43f4:	d8801415 	stw	r2,80(sp)
    43f8:	000cff40 	call	cff4 <__fixdfsi>
    43fc:	1009883a 	mov	r4,r2
    4400:	1021883a 	mov	r16,r2
    4404:	000d0740 	call	d074 <__floatsidf>
    4408:	d9000f17 	ldw	r4,60(sp)
    440c:	d9401017 	ldw	r5,64(sp)
    4410:	100d883a 	mov	r6,r2
    4414:	180f883a 	mov	r7,r3
    4418:	000c6f80 	call	c6f8 <__subdf3>
    441c:	1829883a 	mov	r20,r3
    4420:	d8c00717 	ldw	r3,28(sp)
    4424:	84000c04 	addi	r16,r16,48
    4428:	1023883a 	mov	r17,r2
    442c:	1c000005 	stb	r16,0(r3)
    4430:	db001617 	ldw	r12,88(sp)
    4434:	00800044 	movi	r2,1
    4438:	60802226 	beq	r12,r2,44c4 <_dtoa_r+0x1424>
    443c:	d9c00717 	ldw	r7,28(sp)
    4440:	8805883a 	mov	r2,r17
    4444:	b82b883a 	mov	r21,r23
    4448:	3b19883a 	add	r12,r7,r12
    444c:	6023883a 	mov	r17,r12
    4450:	a007883a 	mov	r3,r20
    4454:	dc800f15 	stw	r18,60(sp)
    4458:	000d883a 	mov	r6,zero
    445c:	01d00934 	movhi	r7,16420
    4460:	1009883a 	mov	r4,r2
    4464:	180b883a 	mov	r5,r3
    4468:	000bfe00 	call	bfe0 <__muldf3>
    446c:	180b883a 	mov	r5,r3
    4470:	1009883a 	mov	r4,r2
    4474:	1829883a 	mov	r20,r3
    4478:	1025883a 	mov	r18,r2
    447c:	000cff40 	call	cff4 <__fixdfsi>
    4480:	1009883a 	mov	r4,r2
    4484:	1021883a 	mov	r16,r2
    4488:	000d0740 	call	d074 <__floatsidf>
    448c:	100d883a 	mov	r6,r2
    4490:	180f883a 	mov	r7,r3
    4494:	9009883a 	mov	r4,r18
    4498:	a00b883a 	mov	r5,r20
    449c:	84000c04 	addi	r16,r16,48
    44a0:	000c6f80 	call	c6f8 <__subdf3>
    44a4:	ad400044 	addi	r21,r21,1
    44a8:	ac3fffc5 	stb	r16,-1(r21)
    44ac:	ac7fea1e 	bne	r21,r17,4458 <__alt_mem_VGA_Subsystem_Char_Buf_Subsystem_Onchip_SRAM+0xf7004458>
    44b0:	1023883a 	mov	r17,r2
    44b4:	d8801217 	ldw	r2,72(sp)
    44b8:	dc800f17 	ldw	r18,60(sp)
    44bc:	1829883a 	mov	r20,r3
    44c0:	b8af883a 	add	r23,r23,r2
    44c4:	d9001417 	ldw	r4,80(sp)
    44c8:	d9401517 	ldw	r5,84(sp)
    44cc:	000d883a 	mov	r6,zero
    44d0:	01cff834 	movhi	r7,16352
    44d4:	000abf40 	call	abf4 <__adddf3>
    44d8:	880d883a 	mov	r6,r17
    44dc:	a00f883a 	mov	r7,r20
    44e0:	1009883a 	mov	r4,r2
    44e4:	180b883a 	mov	r5,r3
    44e8:	000beec0 	call	beec <__ledf2>
    44ec:	10003e0e 	bge	r2,zero,45e8 <_dtoa_r+0x1548>
    44f0:	d9001317 	ldw	r4,76(sp)
    44f4:	bd3fffc3 	ldbu	r20,-1(r23)
    44f8:	d9000515 	stw	r4,20(sp)
    44fc:	003d3b06 	br	39ec <__alt_mem_VGA_Subsystem_Char_Buf_Subsystem_Onchip_SRAM+0xf70039ec>
    4500:	0027883a 	mov	r19,zero
    4504:	003f1b06 	br	4174 <__alt_mem_VGA_Subsystem_Char_Buf_Subsystem_Onchip_SRAM+0xf7004174>
    4508:	d8800817 	ldw	r2,32(sp)
    450c:	11e9c83a 	sub	r20,r2,r7
    4510:	0005883a 	mov	r2,zero
    4514:	003d5406 	br	3a68 <__alt_mem_VGA_Subsystem_Char_Buf_Subsystem_Onchip_SRAM+0xf7003a68>
    4518:	00800044 	movi	r2,1
    451c:	003dc706 	br	3c3c <__alt_mem_VGA_Subsystem_Char_Buf_Subsystem_Onchip_SRAM+0xf7003c3c>
    4520:	d8c00217 	ldw	r3,8(sp)
    4524:	00800d84 	movi	r2,54
    4528:	dd400a17 	ldw	r21,40(sp)
    452c:	10c5c83a 	sub	r2,r2,r3
    4530:	dd000817 	ldw	r20,32(sp)
    4534:	003d4c06 	br	3a68 <__alt_mem_VGA_Subsystem_Char_Buf_Subsystem_Onchip_SRAM+0xf7003a68>
    4538:	dc800f15 	stw	r18,60(sp)
    453c:	dcc01015 	stw	r19,64(sp)
    4540:	04000084 	movi	r16,2
    4544:	003bed06 	br	34fc <__alt_mem_VGA_Subsystem_Char_Buf_Subsystem_Onchip_SRAM+0xf70034fc>
    4548:	d9000617 	ldw	r4,24(sp)
    454c:	203f0d26 	beq	r4,zero,4184 <__alt_mem_VGA_Subsystem_Char_Buf_Subsystem_Onchip_SRAM+0xf7004184>
    4550:	d9800c17 	ldw	r6,48(sp)
    4554:	01bcab0e 	bge	zero,r6,3804 <__alt_mem_VGA_Subsystem_Char_Buf_Subsystem_Onchip_SRAM+0xf7003804>
    4558:	d9401017 	ldw	r5,64(sp)
    455c:	d9000f17 	ldw	r4,60(sp)
    4560:	000d883a 	mov	r6,zero
    4564:	01d00934 	movhi	r7,16420
    4568:	000bfe00 	call	bfe0 <__muldf3>
    456c:	81000044 	addi	r4,r16,1
    4570:	d8800f15 	stw	r2,60(sp)
    4574:	d8c01015 	stw	r3,64(sp)
    4578:	000d0740 	call	d074 <__floatsidf>
    457c:	d9800f17 	ldw	r6,60(sp)
    4580:	d9c01017 	ldw	r7,64(sp)
    4584:	1009883a 	mov	r4,r2
    4588:	180b883a 	mov	r5,r3
    458c:	000bfe00 	call	bfe0 <__muldf3>
    4590:	01d00734 	movhi	r7,16412
    4594:	000d883a 	mov	r6,zero
    4598:	1009883a 	mov	r4,r2
    459c:	180b883a 	mov	r5,r3
    45a0:	000abf40 	call	abf4 <__adddf3>
    45a4:	d9c00517 	ldw	r7,20(sp)
    45a8:	047f3034 	movhi	r17,64704
    45ac:	1021883a 	mov	r16,r2
    45b0:	39ffffc4 	addi	r7,r7,-1
    45b4:	d9c01315 	stw	r7,76(sp)
    45b8:	1c63883a 	add	r17,r3,r17
    45bc:	db000c17 	ldw	r12,48(sp)
    45c0:	003bea06 	br	356c <__alt_mem_VGA_Subsystem_Char_Buf_Subsystem_Onchip_SRAM+0xf700356c>
    45c4:	dc000915 	stw	r16,36(sp)
    45c8:	003e0e06 	br	3e04 <__alt_mem_VGA_Subsystem_Char_Buf_Subsystem_Onchip_SRAM+0xf7003e04>
    45cc:	01000e44 	movi	r4,57
    45d0:	8825883a 	mov	r18,r17
    45d4:	9dc00044 	addi	r23,r19,1
    45d8:	99000005 	stb	r4,0(r19)
    45dc:	a023883a 	mov	r17,r20
    45e0:	dc000915 	stw	r16,36(sp)
    45e4:	003da406 	br	3c78 <__alt_mem_VGA_Subsystem_Char_Buf_Subsystem_Onchip_SRAM+0xf7003c78>
    45e8:	d9801417 	ldw	r6,80(sp)
    45ec:	d9c01517 	ldw	r7,84(sp)
    45f0:	0009883a 	mov	r4,zero
    45f4:	014ff834 	movhi	r5,16352
    45f8:	000c6f80 	call	c6f8 <__subdf3>
    45fc:	880d883a 	mov	r6,r17
    4600:	a00f883a 	mov	r7,r20
    4604:	1009883a 	mov	r4,r2
    4608:	180b883a 	mov	r5,r3
    460c:	000be100 	call	be10 <__gedf2>
    4610:	00bc7c0e 	bge	zero,r2,3804 <__alt_mem_VGA_Subsystem_Char_Buf_Subsystem_Onchip_SRAM+0xf7003804>
    4614:	01000c04 	movi	r4,48
    4618:	00000106 	br	4620 <_dtoa_r+0x1580>
    461c:	102f883a 	mov	r23,r2
    4620:	b8bfffc4 	addi	r2,r23,-1
    4624:	10c00007 	ldb	r3,0(r2)
    4628:	193ffc26 	beq	r3,r4,461c <__alt_mem_VGA_Subsystem_Char_Buf_Subsystem_Onchip_SRAM+0xf700461c>
    462c:	d9801317 	ldw	r6,76(sp)
    4630:	d9800515 	stw	r6,20(sp)
    4634:	003c4406 	br	3748 <__alt_mem_VGA_Subsystem_Char_Buf_Subsystem_Onchip_SRAM+0xf7003748>
    4638:	d9801317 	ldw	r6,76(sp)
    463c:	d9800515 	stw	r6,20(sp)
    4640:	003cea06 	br	39ec <__alt_mem_VGA_Subsystem_Char_Buf_Subsystem_Onchip_SRAM+0xf70039ec>
    4644:	dd800f17 	ldw	r22,60(sp)
    4648:	dcc01017 	ldw	r19,64(sp)
    464c:	dc801217 	ldw	r18,72(sp)
    4650:	003c6c06 	br	3804 <__alt_mem_VGA_Subsystem_Char_Buf_Subsystem_Onchip_SRAM+0xf7003804>
    4654:	903e031e 	bne	r18,zero,3e64 <__alt_mem_VGA_Subsystem_Char_Buf_Subsystem_Onchip_SRAM+0xf7003e64>
    4658:	003ebb06 	br	4148 <__alt_mem_VGA_Subsystem_Char_Buf_Subsystem_Onchip_SRAM+0xf7004148>
    465c:	103e6c1e 	bne	r2,zero,4010 <__alt_mem_VGA_Subsystem_Char_Buf_Subsystem_Onchip_SRAM+0xf7004010>
    4660:	4080004c 	andi	r2,r8,1
    4664:	103e6a26 	beq	r2,zero,4010 <__alt_mem_VGA_Subsystem_Char_Buf_Subsystem_Onchip_SRAM+0xf7004010>
    4668:	003e6606 	br	4004 <__alt_mem_VGA_Subsystem_Char_Buf_Subsystem_Onchip_SRAM+0xf7004004>
    466c:	d8c00317 	ldw	r3,12(sp)
    4670:	00800084 	movi	r2,2
    4674:	10c02916 	blt	r2,r3,471c <_dtoa_r+0x167c>
    4678:	d9000c17 	ldw	r4,48(sp)
    467c:	003e8806 	br	40a0 <__alt_mem_VGA_Subsystem_Char_Buf_Subsystem_Onchip_SRAM+0xf70040a0>
    4680:	04000084 	movi	r16,2
    4684:	003b9d06 	br	34fc <__alt_mem_VGA_Subsystem_Char_Buf_Subsystem_Onchip_SRAM+0xf70034fc>
    4688:	d9001317 	ldw	r4,76(sp)
    468c:	d9000515 	stw	r4,20(sp)
    4690:	003cd606 	br	39ec <__alt_mem_VGA_Subsystem_Char_Buf_Subsystem_Onchip_SRAM+0xf70039ec>
    4694:	d8801317 	ldw	r2,76(sp)
    4698:	d8800515 	stw	r2,20(sp)
    469c:	003c2a06 	br	3748 <__alt_mem_VGA_Subsystem_Char_Buf_Subsystem_Onchip_SRAM+0xf7003748>
    46a0:	d9800317 	ldw	r6,12(sp)
    46a4:	00800084 	movi	r2,2
    46a8:	11801516 	blt	r2,r6,4700 <_dtoa_r+0x1660>
    46ac:	d9c00c17 	ldw	r7,48(sp)
    46b0:	d9c00615 	stw	r7,24(sp)
    46b4:	003df706 	br	3e94 <__alt_mem_VGA_Subsystem_Char_Buf_Subsystem_Onchip_SRAM+0xf7003e94>
    46b8:	193d3926 	beq	r3,r4,3ba0 <__alt_mem_VGA_Subsystem_Char_Buf_Subsystem_Onchip_SRAM+0xf7003ba0>
    46bc:	00c00f04 	movi	r3,60
    46c0:	1885c83a 	sub	r2,r3,r2
    46c4:	003ddf06 	br	3e44 <__alt_mem_VGA_Subsystem_Char_Buf_Subsystem_Onchip_SRAM+0xf7003e44>
    46c8:	e009883a 	mov	r4,fp
    46cc:	e0001115 	stw	zero,68(fp)
    46d0:	000b883a 	mov	r5,zero
    46d4:	00061240 	call	6124 <_Balloc>
    46d8:	d8800715 	stw	r2,28(sp)
    46dc:	d8c00717 	ldw	r3,28(sp)
    46e0:	00bfffc4 	movi	r2,-1
    46e4:	01000044 	movi	r4,1
    46e8:	d8800c15 	stw	r2,48(sp)
    46ec:	e0c01015 	stw	r3,64(fp)
    46f0:	d9000b15 	stw	r4,44(sp)
    46f4:	d8800615 	stw	r2,24(sp)
    46f8:	d8002215 	stw	zero,136(sp)
    46fc:	003c4106 	br	3804 <__alt_mem_VGA_Subsystem_Char_Buf_Subsystem_Onchip_SRAM+0xf7003804>
    4700:	d8c00c17 	ldw	r3,48(sp)
    4704:	d8c00615 	stw	r3,24(sp)
    4708:	003e7006 	br	40cc <__alt_mem_VGA_Subsystem_Char_Buf_Subsystem_Onchip_SRAM+0xf70040cc>
    470c:	04400044 	movi	r17,1
    4710:	003b2006 	br	3394 <__alt_mem_VGA_Subsystem_Char_Buf_Subsystem_Onchip_SRAM+0xf7003394>
    4714:	000b883a 	mov	r5,zero
    4718:	003b3d06 	br	3410 <__alt_mem_VGA_Subsystem_Char_Buf_Subsystem_Onchip_SRAM+0xf7003410>
    471c:	d8800c17 	ldw	r2,48(sp)
    4720:	d8800615 	stw	r2,24(sp)
    4724:	003e6906 	br	40cc <__alt_mem_VGA_Subsystem_Char_Buf_Subsystem_Onchip_SRAM+0xf70040cc>

00004728 <__sflush_r>:
    4728:	2880030b 	ldhu	r2,12(r5)
    472c:	defffb04 	addi	sp,sp,-20
    4730:	dcc00315 	stw	r19,12(sp)
    4734:	dc400115 	stw	r17,4(sp)
    4738:	dfc00415 	stw	ra,16(sp)
    473c:	dc800215 	stw	r18,8(sp)
    4740:	dc000015 	stw	r16,0(sp)
    4744:	10c0020c 	andi	r3,r2,8
    4748:	2823883a 	mov	r17,r5
    474c:	2027883a 	mov	r19,r4
    4750:	1800311e 	bne	r3,zero,4818 <__sflush_r+0xf0>
    4754:	28c00117 	ldw	r3,4(r5)
    4758:	10820014 	ori	r2,r2,2048
    475c:	2880030d 	sth	r2,12(r5)
    4760:	00c04b0e 	bge	zero,r3,4890 <__sflush_r+0x168>
    4764:	8a000a17 	ldw	r8,40(r17)
    4768:	40002326 	beq	r8,zero,47f8 <__sflush_r+0xd0>
    476c:	9c000017 	ldw	r16,0(r19)
    4770:	10c4000c 	andi	r3,r2,4096
    4774:	98000015 	stw	zero,0(r19)
    4778:	18004826 	beq	r3,zero,489c <__sflush_r+0x174>
    477c:	89801417 	ldw	r6,80(r17)
    4780:	10c0010c 	andi	r3,r2,4
    4784:	18000626 	beq	r3,zero,47a0 <__sflush_r+0x78>
    4788:	88c00117 	ldw	r3,4(r17)
    478c:	88800c17 	ldw	r2,48(r17)
    4790:	30cdc83a 	sub	r6,r6,r3
    4794:	10000226 	beq	r2,zero,47a0 <__sflush_r+0x78>
    4798:	88800f17 	ldw	r2,60(r17)
    479c:	308dc83a 	sub	r6,r6,r2
    47a0:	89400717 	ldw	r5,28(r17)
    47a4:	000f883a 	mov	r7,zero
    47a8:	9809883a 	mov	r4,r19
    47ac:	403ee83a 	callr	r8
    47b0:	00ffffc4 	movi	r3,-1
    47b4:	10c04426 	beq	r2,r3,48c8 <__sflush_r+0x1a0>
    47b8:	88c0030b 	ldhu	r3,12(r17)
    47bc:	89000417 	ldw	r4,16(r17)
    47c0:	88000115 	stw	zero,4(r17)
    47c4:	197dffcc 	andi	r5,r3,63487
    47c8:	8940030d 	sth	r5,12(r17)
    47cc:	89000015 	stw	r4,0(r17)
    47d0:	18c4000c 	andi	r3,r3,4096
    47d4:	18002c1e 	bne	r3,zero,4888 <__sflush_r+0x160>
    47d8:	89400c17 	ldw	r5,48(r17)
    47dc:	9c000015 	stw	r16,0(r19)
    47e0:	28000526 	beq	r5,zero,47f8 <__sflush_r+0xd0>
    47e4:	88801004 	addi	r2,r17,64
    47e8:	28800226 	beq	r5,r2,47f4 <__sflush_r+0xcc>
    47ec:	9809883a 	mov	r4,r19
    47f0:	0004e940 	call	4e94 <_free_r>
    47f4:	88000c15 	stw	zero,48(r17)
    47f8:	0005883a 	mov	r2,zero
    47fc:	dfc00417 	ldw	ra,16(sp)
    4800:	dcc00317 	ldw	r19,12(sp)
    4804:	dc800217 	ldw	r18,8(sp)
    4808:	dc400117 	ldw	r17,4(sp)
    480c:	dc000017 	ldw	r16,0(sp)
    4810:	dec00504 	addi	sp,sp,20
    4814:	f800283a 	ret
    4818:	2c800417 	ldw	r18,16(r5)
    481c:	903ff626 	beq	r18,zero,47f8 <__alt_mem_VGA_Subsystem_Char_Buf_Subsystem_Onchip_SRAM+0xf70047f8>
    4820:	2c000017 	ldw	r16,0(r5)
    4824:	108000cc 	andi	r2,r2,3
    4828:	2c800015 	stw	r18,0(r5)
    482c:	84a1c83a 	sub	r16,r16,r18
    4830:	1000131e 	bne	r2,zero,4880 <__sflush_r+0x158>
    4834:	28800517 	ldw	r2,20(r5)
    4838:	88800215 	stw	r2,8(r17)
    483c:	04000316 	blt	zero,r16,484c <__sflush_r+0x124>
    4840:	003fed06 	br	47f8 <__alt_mem_VGA_Subsystem_Char_Buf_Subsystem_Onchip_SRAM+0xf70047f8>
    4844:	90a5883a 	add	r18,r18,r2
    4848:	043feb0e 	bge	zero,r16,47f8 <__alt_mem_VGA_Subsystem_Char_Buf_Subsystem_Onchip_SRAM+0xf70047f8>
    484c:	88800917 	ldw	r2,36(r17)
    4850:	89400717 	ldw	r5,28(r17)
    4854:	800f883a 	mov	r7,r16
    4858:	900d883a 	mov	r6,r18
    485c:	9809883a 	mov	r4,r19
    4860:	103ee83a 	callr	r2
    4864:	80a1c83a 	sub	r16,r16,r2
    4868:	00bff616 	blt	zero,r2,4844 <__alt_mem_VGA_Subsystem_Char_Buf_Subsystem_Onchip_SRAM+0xf7004844>
    486c:	88c0030b 	ldhu	r3,12(r17)
    4870:	00bfffc4 	movi	r2,-1
    4874:	18c01014 	ori	r3,r3,64
    4878:	88c0030d 	sth	r3,12(r17)
    487c:	003fdf06 	br	47fc <__alt_mem_VGA_Subsystem_Char_Buf_Subsystem_Onchip_SRAM+0xf70047fc>
    4880:	0005883a 	mov	r2,zero
    4884:	003fec06 	br	4838 <__alt_mem_VGA_Subsystem_Char_Buf_Subsystem_Onchip_SRAM+0xf7004838>
    4888:	88801415 	stw	r2,80(r17)
    488c:	003fd206 	br	47d8 <__alt_mem_VGA_Subsystem_Char_Buf_Subsystem_Onchip_SRAM+0xf70047d8>
    4890:	28c00f17 	ldw	r3,60(r5)
    4894:	00ffb316 	blt	zero,r3,4764 <__alt_mem_VGA_Subsystem_Char_Buf_Subsystem_Onchip_SRAM+0xf7004764>
    4898:	003fd706 	br	47f8 <__alt_mem_VGA_Subsystem_Char_Buf_Subsystem_Onchip_SRAM+0xf70047f8>
    489c:	89400717 	ldw	r5,28(r17)
    48a0:	000d883a 	mov	r6,zero
    48a4:	01c00044 	movi	r7,1
    48a8:	9809883a 	mov	r4,r19
    48ac:	403ee83a 	callr	r8
    48b0:	100d883a 	mov	r6,r2
    48b4:	00bfffc4 	movi	r2,-1
    48b8:	30801426 	beq	r6,r2,490c <__sflush_r+0x1e4>
    48bc:	8880030b 	ldhu	r2,12(r17)
    48c0:	8a000a17 	ldw	r8,40(r17)
    48c4:	003fae06 	br	4780 <__alt_mem_VGA_Subsystem_Char_Buf_Subsystem_Onchip_SRAM+0xf7004780>
    48c8:	98c00017 	ldw	r3,0(r19)
    48cc:	183fba26 	beq	r3,zero,47b8 <__alt_mem_VGA_Subsystem_Char_Buf_Subsystem_Onchip_SRAM+0xf70047b8>
    48d0:	01000744 	movi	r4,29
    48d4:	19000626 	beq	r3,r4,48f0 <__sflush_r+0x1c8>
    48d8:	01000584 	movi	r4,22
    48dc:	19000426 	beq	r3,r4,48f0 <__sflush_r+0x1c8>
    48e0:	88c0030b 	ldhu	r3,12(r17)
    48e4:	18c01014 	ori	r3,r3,64
    48e8:	88c0030d 	sth	r3,12(r17)
    48ec:	003fc306 	br	47fc <__alt_mem_VGA_Subsystem_Char_Buf_Subsystem_Onchip_SRAM+0xf70047fc>
    48f0:	8880030b 	ldhu	r2,12(r17)
    48f4:	88c00417 	ldw	r3,16(r17)
    48f8:	88000115 	stw	zero,4(r17)
    48fc:	10bdffcc 	andi	r2,r2,63487
    4900:	8880030d 	sth	r2,12(r17)
    4904:	88c00015 	stw	r3,0(r17)
    4908:	003fb306 	br	47d8 <__alt_mem_VGA_Subsystem_Char_Buf_Subsystem_Onchip_SRAM+0xf70047d8>
    490c:	98800017 	ldw	r2,0(r19)
    4910:	103fea26 	beq	r2,zero,48bc <__alt_mem_VGA_Subsystem_Char_Buf_Subsystem_Onchip_SRAM+0xf70048bc>
    4914:	00c00744 	movi	r3,29
    4918:	10c00226 	beq	r2,r3,4924 <__sflush_r+0x1fc>
    491c:	00c00584 	movi	r3,22
    4920:	10c0031e 	bne	r2,r3,4930 <__sflush_r+0x208>
    4924:	9c000015 	stw	r16,0(r19)
    4928:	0005883a 	mov	r2,zero
    492c:	003fb306 	br	47fc <__alt_mem_VGA_Subsystem_Char_Buf_Subsystem_Onchip_SRAM+0xf70047fc>
    4930:	88c0030b 	ldhu	r3,12(r17)
    4934:	3005883a 	mov	r2,r6
    4938:	18c01014 	ori	r3,r3,64
    493c:	88c0030d 	sth	r3,12(r17)
    4940:	003fae06 	br	47fc <__alt_mem_VGA_Subsystem_Char_Buf_Subsystem_Onchip_SRAM+0xf70047fc>

00004944 <_fflush_r>:
    4944:	defffd04 	addi	sp,sp,-12
    4948:	dc000115 	stw	r16,4(sp)
    494c:	dfc00215 	stw	ra,8(sp)
    4950:	2021883a 	mov	r16,r4
    4954:	20000226 	beq	r4,zero,4960 <_fflush_r+0x1c>
    4958:	20800e17 	ldw	r2,56(r4)
    495c:	10000c26 	beq	r2,zero,4990 <_fflush_r+0x4c>
    4960:	2880030f 	ldh	r2,12(r5)
    4964:	1000051e 	bne	r2,zero,497c <_fflush_r+0x38>
    4968:	0005883a 	mov	r2,zero
    496c:	dfc00217 	ldw	ra,8(sp)
    4970:	dc000117 	ldw	r16,4(sp)
    4974:	dec00304 	addi	sp,sp,12
    4978:	f800283a 	ret
    497c:	8009883a 	mov	r4,r16
    4980:	dfc00217 	ldw	ra,8(sp)
    4984:	dc000117 	ldw	r16,4(sp)
    4988:	dec00304 	addi	sp,sp,12
    498c:	00047281 	jmpi	4728 <__sflush_r>
    4990:	d9400015 	stw	r5,0(sp)
    4994:	0004d200 	call	4d20 <__sinit>
    4998:	d9400017 	ldw	r5,0(sp)
    499c:	003ff006 	br	4960 <__alt_mem_VGA_Subsystem_Char_Buf_Subsystem_Onchip_SRAM+0xf7004960>

000049a0 <fflush>:
    49a0:	20000526 	beq	r4,zero,49b8 <fflush+0x18>
    49a4:	00800074 	movhi	r2,1
    49a8:	108e1004 	addi	r2,r2,14400
    49ac:	200b883a 	mov	r5,r4
    49b0:	11000017 	ldw	r4,0(r2)
    49b4:	00049441 	jmpi	4944 <_fflush_r>
    49b8:	00800074 	movhi	r2,1
    49bc:	108e0f04 	addi	r2,r2,14396
    49c0:	11000017 	ldw	r4,0(r2)
    49c4:	01400034 	movhi	r5,0
    49c8:	29525104 	addi	r5,r5,18756
    49cc:	00052681 	jmpi	5268 <_fwalk_reent>

000049d0 <__fp_unlock>:
    49d0:	0005883a 	mov	r2,zero
    49d4:	f800283a 	ret

000049d8 <_cleanup_r>:
    49d8:	01400074 	movhi	r5,1
    49dc:	29631604 	addi	r5,r5,-29608
    49e0:	00052681 	jmpi	5268 <_fwalk_reent>

000049e4 <__sinit.part.1>:
    49e4:	defff704 	addi	sp,sp,-36
    49e8:	00c00034 	movhi	r3,0
    49ec:	dfc00815 	stw	ra,32(sp)
    49f0:	ddc00715 	stw	r23,28(sp)
    49f4:	dd800615 	stw	r22,24(sp)
    49f8:	dd400515 	stw	r21,20(sp)
    49fc:	dd000415 	stw	r20,16(sp)
    4a00:	dcc00315 	stw	r19,12(sp)
    4a04:	dc800215 	stw	r18,8(sp)
    4a08:	dc400115 	stw	r17,4(sp)
    4a0c:	dc000015 	stw	r16,0(sp)
    4a10:	18d27604 	addi	r3,r3,18904
    4a14:	24000117 	ldw	r16,4(r4)
    4a18:	20c00f15 	stw	r3,60(r4)
    4a1c:	2080bb04 	addi	r2,r4,748
    4a20:	00c000c4 	movi	r3,3
    4a24:	20c0b915 	stw	r3,740(r4)
    4a28:	2080ba15 	stw	r2,744(r4)
    4a2c:	2000b815 	stw	zero,736(r4)
    4a30:	05c00204 	movi	r23,8
    4a34:	00800104 	movi	r2,4
    4a38:	2025883a 	mov	r18,r4
    4a3c:	b80d883a 	mov	r6,r23
    4a40:	81001704 	addi	r4,r16,92
    4a44:	000b883a 	mov	r5,zero
    4a48:	80000015 	stw	zero,0(r16)
    4a4c:	80000115 	stw	zero,4(r16)
    4a50:	80000215 	stw	zero,8(r16)
    4a54:	8080030d 	sth	r2,12(r16)
    4a58:	80001915 	stw	zero,100(r16)
    4a5c:	8000038d 	sth	zero,14(r16)
    4a60:	80000415 	stw	zero,16(r16)
    4a64:	80000515 	stw	zero,20(r16)
    4a68:	80000615 	stw	zero,24(r16)
    4a6c:	0005ffc0 	call	5ffc <memset>
    4a70:	05800034 	movhi	r22,0
    4a74:	94400217 	ldw	r17,8(r18)
    4a78:	05400034 	movhi	r21,0
    4a7c:	05000034 	movhi	r20,0
    4a80:	04c00034 	movhi	r19,0
    4a84:	b59c7a04 	addi	r22,r22,29160
    4a88:	ad5c9104 	addi	r21,r21,29252
    4a8c:	a51cb004 	addi	r20,r20,29376
    4a90:	9cdcc704 	addi	r19,r19,29468
    4a94:	85800815 	stw	r22,32(r16)
    4a98:	85400915 	stw	r21,36(r16)
    4a9c:	85000a15 	stw	r20,40(r16)
    4aa0:	84c00b15 	stw	r19,44(r16)
    4aa4:	84000715 	stw	r16,28(r16)
    4aa8:	00800284 	movi	r2,10
    4aac:	8880030d 	sth	r2,12(r17)
    4ab0:	00800044 	movi	r2,1
    4ab4:	b80d883a 	mov	r6,r23
    4ab8:	89001704 	addi	r4,r17,92
    4abc:	000b883a 	mov	r5,zero
    4ac0:	88000015 	stw	zero,0(r17)
    4ac4:	88000115 	stw	zero,4(r17)
    4ac8:	88000215 	stw	zero,8(r17)
    4acc:	88001915 	stw	zero,100(r17)
    4ad0:	8880038d 	sth	r2,14(r17)
    4ad4:	88000415 	stw	zero,16(r17)
    4ad8:	88000515 	stw	zero,20(r17)
    4adc:	88000615 	stw	zero,24(r17)
    4ae0:	0005ffc0 	call	5ffc <memset>
    4ae4:	94000317 	ldw	r16,12(r18)
    4ae8:	00800484 	movi	r2,18
    4aec:	8c400715 	stw	r17,28(r17)
    4af0:	8d800815 	stw	r22,32(r17)
    4af4:	8d400915 	stw	r21,36(r17)
    4af8:	8d000a15 	stw	r20,40(r17)
    4afc:	8cc00b15 	stw	r19,44(r17)
    4b00:	8080030d 	sth	r2,12(r16)
    4b04:	00800084 	movi	r2,2
    4b08:	80000015 	stw	zero,0(r16)
    4b0c:	80000115 	stw	zero,4(r16)
    4b10:	80000215 	stw	zero,8(r16)
    4b14:	80001915 	stw	zero,100(r16)
    4b18:	8080038d 	sth	r2,14(r16)
    4b1c:	80000415 	stw	zero,16(r16)
    4b20:	80000515 	stw	zero,20(r16)
    4b24:	80000615 	stw	zero,24(r16)
    4b28:	b80d883a 	mov	r6,r23
    4b2c:	000b883a 	mov	r5,zero
    4b30:	81001704 	addi	r4,r16,92
    4b34:	0005ffc0 	call	5ffc <memset>
    4b38:	00800044 	movi	r2,1
    4b3c:	84000715 	stw	r16,28(r16)
    4b40:	85800815 	stw	r22,32(r16)
    4b44:	85400915 	stw	r21,36(r16)
    4b48:	85000a15 	stw	r20,40(r16)
    4b4c:	84c00b15 	stw	r19,44(r16)
    4b50:	90800e15 	stw	r2,56(r18)
    4b54:	dfc00817 	ldw	ra,32(sp)
    4b58:	ddc00717 	ldw	r23,28(sp)
    4b5c:	dd800617 	ldw	r22,24(sp)
    4b60:	dd400517 	ldw	r21,20(sp)
    4b64:	dd000417 	ldw	r20,16(sp)
    4b68:	dcc00317 	ldw	r19,12(sp)
    4b6c:	dc800217 	ldw	r18,8(sp)
    4b70:	dc400117 	ldw	r17,4(sp)
    4b74:	dc000017 	ldw	r16,0(sp)
    4b78:	dec00904 	addi	sp,sp,36
    4b7c:	f800283a 	ret

00004b80 <__fp_lock>:
    4b80:	0005883a 	mov	r2,zero
    4b84:	f800283a 	ret

00004b88 <__sfmoreglue>:
    4b88:	defffc04 	addi	sp,sp,-16
    4b8c:	dc400115 	stw	r17,4(sp)
    4b90:	2c7fffc4 	addi	r17,r5,-1
    4b94:	8c401a24 	muli	r17,r17,104
    4b98:	dc800215 	stw	r18,8(sp)
    4b9c:	2825883a 	mov	r18,r5
    4ba0:	89401d04 	addi	r5,r17,116
    4ba4:	dc000015 	stw	r16,0(sp)
    4ba8:	dfc00315 	stw	ra,12(sp)
    4bac:	00055c40 	call	55c4 <_malloc_r>
    4bb0:	1021883a 	mov	r16,r2
    4bb4:	10000726 	beq	r2,zero,4bd4 <__sfmoreglue+0x4c>
    4bb8:	11000304 	addi	r4,r2,12
    4bbc:	10000015 	stw	zero,0(r2)
    4bc0:	14800115 	stw	r18,4(r2)
    4bc4:	11000215 	stw	r4,8(r2)
    4bc8:	89801a04 	addi	r6,r17,104
    4bcc:	000b883a 	mov	r5,zero
    4bd0:	0005ffc0 	call	5ffc <memset>
    4bd4:	8005883a 	mov	r2,r16
    4bd8:	dfc00317 	ldw	ra,12(sp)
    4bdc:	dc800217 	ldw	r18,8(sp)
    4be0:	dc400117 	ldw	r17,4(sp)
    4be4:	dc000017 	ldw	r16,0(sp)
    4be8:	dec00404 	addi	sp,sp,16
    4bec:	f800283a 	ret

00004bf0 <__sfp>:
    4bf0:	defffb04 	addi	sp,sp,-20
    4bf4:	dc000015 	stw	r16,0(sp)
    4bf8:	04000074 	movhi	r16,1
    4bfc:	840e0f04 	addi	r16,r16,14396
    4c00:	dcc00315 	stw	r19,12(sp)
    4c04:	2027883a 	mov	r19,r4
    4c08:	81000017 	ldw	r4,0(r16)
    4c0c:	dfc00415 	stw	ra,16(sp)
    4c10:	dc800215 	stw	r18,8(sp)
    4c14:	20800e17 	ldw	r2,56(r4)
    4c18:	dc400115 	stw	r17,4(sp)
    4c1c:	1000021e 	bne	r2,zero,4c28 <__sfp+0x38>
    4c20:	00049e40 	call	49e4 <__sinit.part.1>
    4c24:	81000017 	ldw	r4,0(r16)
    4c28:	2480b804 	addi	r18,r4,736
    4c2c:	047fffc4 	movi	r17,-1
    4c30:	91000117 	ldw	r4,4(r18)
    4c34:	94000217 	ldw	r16,8(r18)
    4c38:	213fffc4 	addi	r4,r4,-1
    4c3c:	20000a16 	blt	r4,zero,4c68 <__sfp+0x78>
    4c40:	8080030f 	ldh	r2,12(r16)
    4c44:	10000c26 	beq	r2,zero,4c78 <__sfp+0x88>
    4c48:	80c01d04 	addi	r3,r16,116
    4c4c:	00000206 	br	4c58 <__sfp+0x68>
    4c50:	18bfe60f 	ldh	r2,-104(r3)
    4c54:	10000826 	beq	r2,zero,4c78 <__sfp+0x88>
    4c58:	213fffc4 	addi	r4,r4,-1
    4c5c:	1c3ffd04 	addi	r16,r3,-12
    4c60:	18c01a04 	addi	r3,r3,104
    4c64:	247ffa1e 	bne	r4,r17,4c50 <__alt_mem_VGA_Subsystem_Char_Buf_Subsystem_Onchip_SRAM+0xf7004c50>
    4c68:	90800017 	ldw	r2,0(r18)
    4c6c:	10001d26 	beq	r2,zero,4ce4 <__sfp+0xf4>
    4c70:	1025883a 	mov	r18,r2
    4c74:	003fee06 	br	4c30 <__alt_mem_VGA_Subsystem_Char_Buf_Subsystem_Onchip_SRAM+0xf7004c30>
    4c78:	00bfffc4 	movi	r2,-1
    4c7c:	8080038d 	sth	r2,14(r16)
    4c80:	00800044 	movi	r2,1
    4c84:	8080030d 	sth	r2,12(r16)
    4c88:	80001915 	stw	zero,100(r16)
    4c8c:	80000015 	stw	zero,0(r16)
    4c90:	80000215 	stw	zero,8(r16)
    4c94:	80000115 	stw	zero,4(r16)
    4c98:	80000415 	stw	zero,16(r16)
    4c9c:	80000515 	stw	zero,20(r16)
    4ca0:	80000615 	stw	zero,24(r16)
    4ca4:	01800204 	movi	r6,8
    4ca8:	000b883a 	mov	r5,zero
    4cac:	81001704 	addi	r4,r16,92
    4cb0:	0005ffc0 	call	5ffc <memset>
    4cb4:	8005883a 	mov	r2,r16
    4cb8:	80000c15 	stw	zero,48(r16)
    4cbc:	80000d15 	stw	zero,52(r16)
    4cc0:	80001115 	stw	zero,68(r16)
    4cc4:	80001215 	stw	zero,72(r16)
    4cc8:	dfc00417 	ldw	ra,16(sp)
    4ccc:	dcc00317 	ldw	r19,12(sp)
    4cd0:	dc800217 	ldw	r18,8(sp)
    4cd4:	dc400117 	ldw	r17,4(sp)
    4cd8:	dc000017 	ldw	r16,0(sp)
    4cdc:	dec00504 	addi	sp,sp,20
    4ce0:	f800283a 	ret
    4ce4:	01400104 	movi	r5,4
    4ce8:	9809883a 	mov	r4,r19
    4cec:	0004b880 	call	4b88 <__sfmoreglue>
    4cf0:	90800015 	stw	r2,0(r18)
    4cf4:	103fde1e 	bne	r2,zero,4c70 <__alt_mem_VGA_Subsystem_Char_Buf_Subsystem_Onchip_SRAM+0xf7004c70>
    4cf8:	00800304 	movi	r2,12
    4cfc:	98800015 	stw	r2,0(r19)
    4d00:	0005883a 	mov	r2,zero
    4d04:	003ff006 	br	4cc8 <__alt_mem_VGA_Subsystem_Char_Buf_Subsystem_Onchip_SRAM+0xf7004cc8>

00004d08 <_cleanup>:
    4d08:	00800074 	movhi	r2,1
    4d0c:	108e0f04 	addi	r2,r2,14396
    4d10:	11000017 	ldw	r4,0(r2)
    4d14:	01400074 	movhi	r5,1
    4d18:	29631604 	addi	r5,r5,-29608
    4d1c:	00052681 	jmpi	5268 <_fwalk_reent>

00004d20 <__sinit>:
    4d20:	20800e17 	ldw	r2,56(r4)
    4d24:	10000126 	beq	r2,zero,4d2c <__sinit+0xc>
    4d28:	f800283a 	ret
    4d2c:	00049e41 	jmpi	49e4 <__sinit.part.1>

00004d30 <__sfp_lock_acquire>:
    4d30:	f800283a 	ret

00004d34 <__sfp_lock_release>:
    4d34:	f800283a 	ret

00004d38 <__sinit_lock_acquire>:
    4d38:	f800283a 	ret

00004d3c <__sinit_lock_release>:
    4d3c:	f800283a 	ret

00004d40 <__fp_lock_all>:
    4d40:	00800074 	movhi	r2,1
    4d44:	108e1004 	addi	r2,r2,14400
    4d48:	11000017 	ldw	r4,0(r2)
    4d4c:	01400034 	movhi	r5,0
    4d50:	2952e004 	addi	r5,r5,19328
    4d54:	00051a41 	jmpi	51a4 <_fwalk>

00004d58 <__fp_unlock_all>:
    4d58:	00800074 	movhi	r2,1
    4d5c:	108e1004 	addi	r2,r2,14400
    4d60:	11000017 	ldw	r4,0(r2)
    4d64:	01400034 	movhi	r5,0
    4d68:	29527404 	addi	r5,r5,18896
    4d6c:	00051a41 	jmpi	51a4 <_fwalk>

00004d70 <_malloc_trim_r>:
    4d70:	defffb04 	addi	sp,sp,-20
    4d74:	dcc00315 	stw	r19,12(sp)
    4d78:	04c00074 	movhi	r19,1
    4d7c:	dc800215 	stw	r18,8(sp)
    4d80:	dc400115 	stw	r17,4(sp)
    4d84:	dc000015 	stw	r16,0(sp)
    4d88:	dfc00415 	stw	ra,16(sp)
    4d8c:	2821883a 	mov	r16,r5
    4d90:	9cc7c704 	addi	r19,r19,7964
    4d94:	2025883a 	mov	r18,r4
    4d98:	000d9480 	call	d948 <__malloc_lock>
    4d9c:	98800217 	ldw	r2,8(r19)
    4da0:	14400117 	ldw	r17,4(r2)
    4da4:	00bfff04 	movi	r2,-4
    4da8:	88a2703a 	and	r17,r17,r2
    4dac:	8c21c83a 	sub	r16,r17,r16
    4db0:	8403fbc4 	addi	r16,r16,4079
    4db4:	8020d33a 	srli	r16,r16,12
    4db8:	0083ffc4 	movi	r2,4095
    4dbc:	843fffc4 	addi	r16,r16,-1
    4dc0:	8020933a 	slli	r16,r16,12
    4dc4:	1400060e 	bge	r2,r16,4de0 <_malloc_trim_r+0x70>
    4dc8:	000b883a 	mov	r5,zero
    4dcc:	9009883a 	mov	r4,r18
    4dd0:	00071940 	call	7194 <_sbrk_r>
    4dd4:	98c00217 	ldw	r3,8(r19)
    4dd8:	1c47883a 	add	r3,r3,r17
    4ddc:	10c00a26 	beq	r2,r3,4e08 <_malloc_trim_r+0x98>
    4de0:	9009883a 	mov	r4,r18
    4de4:	000d96c0 	call	d96c <__malloc_unlock>
    4de8:	0005883a 	mov	r2,zero
    4dec:	dfc00417 	ldw	ra,16(sp)
    4df0:	dcc00317 	ldw	r19,12(sp)
    4df4:	dc800217 	ldw	r18,8(sp)
    4df8:	dc400117 	ldw	r17,4(sp)
    4dfc:	dc000017 	ldw	r16,0(sp)
    4e00:	dec00504 	addi	sp,sp,20
    4e04:	f800283a 	ret
    4e08:	040bc83a 	sub	r5,zero,r16
    4e0c:	9009883a 	mov	r4,r18
    4e10:	00071940 	call	7194 <_sbrk_r>
    4e14:	00ffffc4 	movi	r3,-1
    4e18:	10c00d26 	beq	r2,r3,4e50 <_malloc_trim_r+0xe0>
    4e1c:	00c00074 	movhi	r3,1
    4e20:	18d5b404 	addi	r3,r3,22224
    4e24:	18800017 	ldw	r2,0(r3)
    4e28:	99000217 	ldw	r4,8(r19)
    4e2c:	8c23c83a 	sub	r17,r17,r16
    4e30:	8c400054 	ori	r17,r17,1
    4e34:	1421c83a 	sub	r16,r2,r16
    4e38:	24400115 	stw	r17,4(r4)
    4e3c:	9009883a 	mov	r4,r18
    4e40:	1c000015 	stw	r16,0(r3)
    4e44:	000d96c0 	call	d96c <__malloc_unlock>
    4e48:	00800044 	movi	r2,1
    4e4c:	003fe706 	br	4dec <__alt_mem_VGA_Subsystem_Char_Buf_Subsystem_Onchip_SRAM+0xf7004dec>
    4e50:	000b883a 	mov	r5,zero
    4e54:	9009883a 	mov	r4,r18
    4e58:	00071940 	call	7194 <_sbrk_r>
    4e5c:	99000217 	ldw	r4,8(r19)
    4e60:	014003c4 	movi	r5,15
    4e64:	1107c83a 	sub	r3,r2,r4
    4e68:	28ffdd0e 	bge	r5,r3,4de0 <__alt_mem_VGA_Subsystem_Char_Buf_Subsystem_Onchip_SRAM+0xf7004de0>
    4e6c:	01400074 	movhi	r5,1
    4e70:	294e1204 	addi	r5,r5,14408
    4e74:	29400017 	ldw	r5,0(r5)
    4e78:	18c00054 	ori	r3,r3,1
    4e7c:	20c00115 	stw	r3,4(r4)
    4e80:	00c00074 	movhi	r3,1
    4e84:	1145c83a 	sub	r2,r2,r5
    4e88:	18d5b404 	addi	r3,r3,22224
    4e8c:	18800015 	stw	r2,0(r3)
    4e90:	003fd306 	br	4de0 <__alt_mem_VGA_Subsystem_Char_Buf_Subsystem_Onchip_SRAM+0xf7004de0>

00004e94 <_free_r>:
    4e94:	28004126 	beq	r5,zero,4f9c <_free_r+0x108>
    4e98:	defffd04 	addi	sp,sp,-12
    4e9c:	dc400115 	stw	r17,4(sp)
    4ea0:	dc000015 	stw	r16,0(sp)
    4ea4:	2023883a 	mov	r17,r4
    4ea8:	2821883a 	mov	r16,r5
    4eac:	dfc00215 	stw	ra,8(sp)
    4eb0:	000d9480 	call	d948 <__malloc_lock>
    4eb4:	81ffff17 	ldw	r7,-4(r16)
    4eb8:	00bfff84 	movi	r2,-2
    4ebc:	01000074 	movhi	r4,1
    4ec0:	81bffe04 	addi	r6,r16,-8
    4ec4:	3884703a 	and	r2,r7,r2
    4ec8:	2107c704 	addi	r4,r4,7964
    4ecc:	308b883a 	add	r5,r6,r2
    4ed0:	2a400117 	ldw	r9,4(r5)
    4ed4:	22000217 	ldw	r8,8(r4)
    4ed8:	00ffff04 	movi	r3,-4
    4edc:	48c6703a 	and	r3,r9,r3
    4ee0:	2a005726 	beq	r5,r8,5040 <_free_r+0x1ac>
    4ee4:	28c00115 	stw	r3,4(r5)
    4ee8:	39c0004c 	andi	r7,r7,1
    4eec:	3800091e 	bne	r7,zero,4f14 <_free_r+0x80>
    4ef0:	823ffe17 	ldw	r8,-8(r16)
    4ef4:	22400204 	addi	r9,r4,8
    4ef8:	320dc83a 	sub	r6,r6,r8
    4efc:	31c00217 	ldw	r7,8(r6)
    4f00:	1205883a 	add	r2,r2,r8
    4f04:	3a406526 	beq	r7,r9,509c <_free_r+0x208>
    4f08:	32000317 	ldw	r8,12(r6)
    4f0c:	3a000315 	stw	r8,12(r7)
    4f10:	41c00215 	stw	r7,8(r8)
    4f14:	28cf883a 	add	r7,r5,r3
    4f18:	39c00117 	ldw	r7,4(r7)
    4f1c:	39c0004c 	andi	r7,r7,1
    4f20:	38003a26 	beq	r7,zero,500c <_free_r+0x178>
    4f24:	10c00054 	ori	r3,r2,1
    4f28:	30c00115 	stw	r3,4(r6)
    4f2c:	3087883a 	add	r3,r6,r2
    4f30:	18800015 	stw	r2,0(r3)
    4f34:	00c07fc4 	movi	r3,511
    4f38:	18801936 	bltu	r3,r2,4fa0 <_free_r+0x10c>
    4f3c:	1004d0fa 	srli	r2,r2,3
    4f40:	01c00044 	movi	r7,1
    4f44:	21400117 	ldw	r5,4(r4)
    4f48:	10c00044 	addi	r3,r2,1
    4f4c:	18c7883a 	add	r3,r3,r3
    4f50:	1005d0ba 	srai	r2,r2,2
